
zephyr.elf:     file format elf32-littlearm


Disassembly of section rom_start:

08000000 <_vector_table>:
 8000000:	40 10 00 20 ed 10 00 08 57 28 00 08 c1 10 00 08     @.. ....W(......
 8000010:	c1 10 00 08 c1 10 00 08 c1 10 00 08 00 00 00 00     ................
	...
 800002c:	d5 0d 00 08 c1 10 00 08 00 00 00 00 81 0d 00 08     ................
 800003c:	a5 1a 00 08                                         ....

08000040 <_irq_vector_table>:
 8000040:	85 0e 00 08 85 0e 00 08 85 0e 00 08 85 0e 00 08     ................
 8000050:	85 0e 00 08 85 0e 00 08 85 0e 00 08 85 0e 00 08     ................
 8000060:	85 0e 00 08 85 0e 00 08 85 0e 00 08 85 0e 00 08     ................
 8000070:	85 0e 00 08 85 0e 00 08 85 0e 00 08 85 0e 00 08     ................
 8000080:	85 0e 00 08 85 0e 00 08 85 0e 00 08 85 0e 00 08     ................
 8000090:	85 0e 00 08 85 0e 00 08 85 0e 00 08 85 0e 00 08     ................
 80000a0:	85 0e 00 08 85 0e 00 08 85 0e 00 08 85 0e 00 08     ................
 80000b0:	85 0e 00 08 85 0e 00 08 85 0e 00 08 85 0e 00 08     ................
 80000c0:	85 0e 00 08 85 0e 00 08 85 0e 00 08 85 0e 00 08     ................
 80000d0:	85 0e 00 08 85 0e 00 08 85 0e 00 08 85 0e 00 08     ................
 80000e0:	85 0e 00 08 85 0e 00 08 85 0e 00 08 85 0e 00 08     ................
 80000f0:	85 0e 00 08 85 0e 00 08 85 0e 00 08 85 0e 00 08     ................
 8000100:	85 0e 00 08 85 0e 00 08 85 0e 00 08 85 0e 00 08     ................
 8000110:	85 0e 00 08 85 0e 00 08 85 0e 00 08 85 0e 00 08     ................
 8000120:	85 0e 00 08 85 0e 00 08 85 0e 00 08 85 0e 00 08     ................
 8000130:	85 0e 00 08 85 0e 00 08 85 0e 00 08 85 0e 00 08     ................
 8000140:	85 0e 00 08 85 0e 00 08 85 0e 00 08 85 0e 00 08     ................
 8000150:	85 0e 00 08 85 0e 00 08 85 0e 00 08 85 0e 00 08     ................
 8000160:	85 0e 00 08 85 0e 00 08 85 0e 00 08 85 0e 00 08     ................
 8000170:	85 0e 00 08 85 0e 00 08 85 0e 00 08 85 0e 00 08     ................
 8000180:	85 0e 00 08 85 0e 00 08 85 0e 00 08                 ............

Disassembly of section text:

0800018c <__aeabi_uldivmod>:
 800018c:	b953      	cbnz	r3, 80001a4 <__aeabi_uldivmod+0x18>
 800018e:	b94a      	cbnz	r2, 80001a4 <__aeabi_uldivmod+0x18>
 8000190:	2900      	cmp	r1, #0
 8000192:	bf08      	it	eq
 8000194:	2800      	cmpeq	r0, #0
 8000196:	bf1c      	itt	ne
 8000198:	f04f 31ff 	movne.w	r1, #4294967295
 800019c:	f04f 30ff 	movne.w	r0, #4294967295
 80001a0:	f000 b80c 	b.w	80001bc <__aeabi_idiv0>
 80001a4:	f1ad 0c08 	sub.w	ip, sp, #8
 80001a8:	e96d ce04 	strd	ip, lr, [sp, #-16]!
 80001ac:	f000 f808 	bl	80001c0 <__udivmoddi4>
 80001b0:	f8dd e004 	ldr.w	lr, [sp, #4]
 80001b4:	e9dd 2302 	ldrd	r2, r3, [sp, #8]
 80001b8:	b004      	add	sp, #16
 80001ba:	4770      	bx	lr

080001bc <__aeabi_idiv0>:
 80001bc:	4770      	bx	lr
 80001be:	bf00      	nop

080001c0 <__udivmoddi4>:
 80001c0:	e92d 47f0 	stmdb	sp!, {r4, r5, r6, r7, r8, r9, sl, lr}
 80001c4:	4686      	mov	lr, r0
 80001c6:	468c      	mov	ip, r1
 80001c8:	4608      	mov	r0, r1
 80001ca:	9e08      	ldr	r6, [sp, #32]
 80001cc:	4615      	mov	r5, r2
 80001ce:	4674      	mov	r4, lr
 80001d0:	4619      	mov	r1, r3
 80001d2:	2b00      	cmp	r3, #0
 80001d4:	f040 80c2 	bne.w	800035c <__udivmoddi4+0x19c>
 80001d8:	4285      	cmp	r5, r0
 80001da:	fab2 f282 	clz	r2, r2
 80001de:	d945      	bls.n	800026c <__udivmoddi4+0xac>
 80001e0:	b14a      	cbz	r2, 80001f6 <__udivmoddi4+0x36>
 80001e2:	f1c2 0320 	rsb	r3, r2, #32
 80001e6:	fa00 fc02 	lsl.w	ip, r0, r2
 80001ea:	fa2e f303 	lsr.w	r3, lr, r3
 80001ee:	4095      	lsls	r5, r2
 80001f0:	ea43 0c0c 	orr.w	ip, r3, ip
 80001f4:	4094      	lsls	r4, r2
 80001f6:	ea4f 4e15 	mov.w	lr, r5, lsr #16
 80001fa:	b2a8      	uxth	r0, r5
 80001fc:	fbbc f8fe 	udiv	r8, ip, lr
 8000200:	0c23      	lsrs	r3, r4, #16
 8000202:	fb0e cc18 	mls	ip, lr, r8, ip
 8000206:	fb08 f900 	mul.w	r9, r8, r0
 800020a:	ea43 430c 	orr.w	r3, r3, ip, lsl #16
 800020e:	4599      	cmp	r9, r3
 8000210:	d928      	bls.n	8000264 <__udivmoddi4+0xa4>
 8000212:	18eb      	adds	r3, r5, r3
 8000214:	f108 37ff 	add.w	r7, r8, #4294967295
 8000218:	d204      	bcs.n	8000224 <__udivmoddi4+0x64>
 800021a:	4599      	cmp	r9, r3
 800021c:	d902      	bls.n	8000224 <__udivmoddi4+0x64>
 800021e:	f1a8 0702 	sub.w	r7, r8, #2
 8000222:	442b      	add	r3, r5
 8000224:	eba3 0309 	sub.w	r3, r3, r9
 8000228:	b2a4      	uxth	r4, r4
 800022a:	fbb3 fcfe 	udiv	ip, r3, lr
 800022e:	fb0e 331c 	mls	r3, lr, ip, r3
 8000232:	fb0c f000 	mul.w	r0, ip, r0
 8000236:	ea44 4403 	orr.w	r4, r4, r3, lsl #16
 800023a:	42a0      	cmp	r0, r4
 800023c:	d914      	bls.n	8000268 <__udivmoddi4+0xa8>
 800023e:	192c      	adds	r4, r5, r4
 8000240:	f10c 33ff 	add.w	r3, ip, #4294967295
 8000244:	d204      	bcs.n	8000250 <__udivmoddi4+0x90>
 8000246:	42a0      	cmp	r0, r4
 8000248:	d902      	bls.n	8000250 <__udivmoddi4+0x90>
 800024a:	f1ac 0302 	sub.w	r3, ip, #2
 800024e:	442c      	add	r4, r5
 8000250:	1a24      	subs	r4, r4, r0
 8000252:	ea43 4007 	orr.w	r0, r3, r7, lsl #16
 8000256:	b11e      	cbz	r6, 8000260 <__udivmoddi4+0xa0>
 8000258:	40d4      	lsrs	r4, r2
 800025a:	2300      	movs	r3, #0
 800025c:	6034      	str	r4, [r6, #0]
 800025e:	6073      	str	r3, [r6, #4]
 8000260:	e8bd 87f0 	ldmia.w	sp!, {r4, r5, r6, r7, r8, r9, sl, pc}
 8000264:	4647      	mov	r7, r8
 8000266:	e7dd      	b.n	8000224 <__udivmoddi4+0x64>
 8000268:	4663      	mov	r3, ip
 800026a:	e7f1      	b.n	8000250 <__udivmoddi4+0x90>
 800026c:	bb92      	cbnz	r2, 80002d4 <__udivmoddi4+0x114>
 800026e:	1b43      	subs	r3, r0, r5
 8000270:	2101      	movs	r1, #1
 8000272:	ea4f 4e15 	mov.w	lr, r5, lsr #16
 8000276:	b2af      	uxth	r7, r5
 8000278:	fbb3 fcfe 	udiv	ip, r3, lr
 800027c:	0c20      	lsrs	r0, r4, #16
 800027e:	fb0e 331c 	mls	r3, lr, ip, r3
 8000282:	fb0c f807 	mul.w	r8, ip, r7
 8000286:	ea40 4303 	orr.w	r3, r0, r3, lsl #16
 800028a:	4598      	cmp	r8, r3
 800028c:	d962      	bls.n	8000354 <__udivmoddi4+0x194>
 800028e:	18eb      	adds	r3, r5, r3
 8000290:	f10c 30ff 	add.w	r0, ip, #4294967295
 8000294:	d204      	bcs.n	80002a0 <__udivmoddi4+0xe0>
 8000296:	4598      	cmp	r8, r3
 8000298:	d902      	bls.n	80002a0 <__udivmoddi4+0xe0>
 800029a:	f1ac 0002 	sub.w	r0, ip, #2
 800029e:	442b      	add	r3, r5
 80002a0:	eba3 0308 	sub.w	r3, r3, r8
 80002a4:	b2a4      	uxth	r4, r4
 80002a6:	fbb3 fcfe 	udiv	ip, r3, lr
 80002aa:	fb0e 331c 	mls	r3, lr, ip, r3
 80002ae:	fb0c f707 	mul.w	r7, ip, r7
 80002b2:	ea44 4403 	orr.w	r4, r4, r3, lsl #16
 80002b6:	42a7      	cmp	r7, r4
 80002b8:	d94e      	bls.n	8000358 <__udivmoddi4+0x198>
 80002ba:	192c      	adds	r4, r5, r4
 80002bc:	f10c 33ff 	add.w	r3, ip, #4294967295
 80002c0:	d204      	bcs.n	80002cc <__udivmoddi4+0x10c>
 80002c2:	42a7      	cmp	r7, r4
 80002c4:	d902      	bls.n	80002cc <__udivmoddi4+0x10c>
 80002c6:	f1ac 0302 	sub.w	r3, ip, #2
 80002ca:	442c      	add	r4, r5
 80002cc:	1be4      	subs	r4, r4, r7
 80002ce:	ea43 4000 	orr.w	r0, r3, r0, lsl #16
 80002d2:	e7c0      	b.n	8000256 <__udivmoddi4+0x96>
 80002d4:	f1c2 0320 	rsb	r3, r2, #32
 80002d8:	fa20 f103 	lsr.w	r1, r0, r3
 80002dc:	4095      	lsls	r5, r2
 80002de:	4090      	lsls	r0, r2
 80002e0:	fa2e f303 	lsr.w	r3, lr, r3
 80002e4:	4303      	orrs	r3, r0
 80002e6:	ea4f 4e15 	mov.w	lr, r5, lsr #16
 80002ea:	b2af      	uxth	r7, r5
 80002ec:	fbb1 fcfe 	udiv	ip, r1, lr
 80002f0:	fb0e 101c 	mls	r0, lr, ip, r1
 80002f4:	0c19      	lsrs	r1, r3, #16
 80002f6:	fb0c f807 	mul.w	r8, ip, r7
 80002fa:	ea41 4100 	orr.w	r1, r1, r0, lsl #16
 80002fe:	4588      	cmp	r8, r1
 8000300:	fa04 f402 	lsl.w	r4, r4, r2
 8000304:	d922      	bls.n	800034c <__udivmoddi4+0x18c>
 8000306:	1869      	adds	r1, r5, r1
 8000308:	f10c 30ff 	add.w	r0, ip, #4294967295
 800030c:	d204      	bcs.n	8000318 <__udivmoddi4+0x158>
 800030e:	4588      	cmp	r8, r1
 8000310:	d902      	bls.n	8000318 <__udivmoddi4+0x158>
 8000312:	f1ac 0002 	sub.w	r0, ip, #2
 8000316:	4429      	add	r1, r5
 8000318:	eba1 0108 	sub.w	r1, r1, r8
 800031c:	b29b      	uxth	r3, r3
 800031e:	fbb1 fcfe 	udiv	ip, r1, lr
 8000322:	fb0e 111c 	mls	r1, lr, ip, r1
 8000326:	fb0c f707 	mul.w	r7, ip, r7
 800032a:	ea43 4301 	orr.w	r3, r3, r1, lsl #16
 800032e:	429f      	cmp	r7, r3
 8000330:	d90e      	bls.n	8000350 <__udivmoddi4+0x190>
 8000332:	18eb      	adds	r3, r5, r3
 8000334:	f10c 31ff 	add.w	r1, ip, #4294967295
 8000338:	d204      	bcs.n	8000344 <__udivmoddi4+0x184>
 800033a:	429f      	cmp	r7, r3
 800033c:	d902      	bls.n	8000344 <__udivmoddi4+0x184>
 800033e:	f1ac 0102 	sub.w	r1, ip, #2
 8000342:	442b      	add	r3, r5
 8000344:	1bdb      	subs	r3, r3, r7
 8000346:	ea41 4100 	orr.w	r1, r1, r0, lsl #16
 800034a:	e792      	b.n	8000272 <__udivmoddi4+0xb2>
 800034c:	4660      	mov	r0, ip
 800034e:	e7e3      	b.n	8000318 <__udivmoddi4+0x158>
 8000350:	4661      	mov	r1, ip
 8000352:	e7f7      	b.n	8000344 <__udivmoddi4+0x184>
 8000354:	4660      	mov	r0, ip
 8000356:	e7a3      	b.n	80002a0 <__udivmoddi4+0xe0>
 8000358:	4663      	mov	r3, ip
 800035a:	e7b7      	b.n	80002cc <__udivmoddi4+0x10c>
 800035c:	4283      	cmp	r3, r0
 800035e:	d906      	bls.n	800036e <__udivmoddi4+0x1ae>
 8000360:	b916      	cbnz	r6, 8000368 <__udivmoddi4+0x1a8>
 8000362:	2100      	movs	r1, #0
 8000364:	4608      	mov	r0, r1
 8000366:	e77b      	b.n	8000260 <__udivmoddi4+0xa0>
 8000368:	e9c6 e000 	strd	lr, r0, [r6]
 800036c:	e7f9      	b.n	8000362 <__udivmoddi4+0x1a2>
 800036e:	fab3 f783 	clz	r7, r3
 8000372:	b98f      	cbnz	r7, 8000398 <__udivmoddi4+0x1d8>
 8000374:	4283      	cmp	r3, r0
 8000376:	d301      	bcc.n	800037c <__udivmoddi4+0x1bc>
 8000378:	4572      	cmp	r2, lr
 800037a:	d808      	bhi.n	800038e <__udivmoddi4+0x1ce>
 800037c:	ebbe 0402 	subs.w	r4, lr, r2
 8000380:	eb60 0303 	sbc.w	r3, r0, r3
 8000384:	2001      	movs	r0, #1
 8000386:	469c      	mov	ip, r3
 8000388:	b91e      	cbnz	r6, 8000392 <__udivmoddi4+0x1d2>
 800038a:	2100      	movs	r1, #0
 800038c:	e768      	b.n	8000260 <__udivmoddi4+0xa0>
 800038e:	4638      	mov	r0, r7
 8000390:	e7fa      	b.n	8000388 <__udivmoddi4+0x1c8>
 8000392:	e9c6 4c00 	strd	r4, ip, [r6]
 8000396:	e7f8      	b.n	800038a <__udivmoddi4+0x1ca>
 8000398:	f1c7 0c20 	rsb	ip, r7, #32
 800039c:	40bb      	lsls	r3, r7
 800039e:	fa22 f40c 	lsr.w	r4, r2, ip
 80003a2:	431c      	orrs	r4, r3
 80003a4:	fa2e f10c 	lsr.w	r1, lr, ip
 80003a8:	fa20 f30c 	lsr.w	r3, r0, ip
 80003ac:	40b8      	lsls	r0, r7
 80003ae:	4301      	orrs	r1, r0
 80003b0:	ea4f 4914 	mov.w	r9, r4, lsr #16
 80003b4:	fa0e f507 	lsl.w	r5, lr, r7
 80003b8:	fbb3 f8f9 	udiv	r8, r3, r9
 80003bc:	fa1f fe84 	uxth.w	lr, r4
 80003c0:	fb09 3018 	mls	r0, r9, r8, r3
 80003c4:	0c0b      	lsrs	r3, r1, #16
 80003c6:	fb08 fa0e 	mul.w	sl, r8, lr
 80003ca:	ea43 4300 	orr.w	r3, r3, r0, lsl #16
 80003ce:	459a      	cmp	sl, r3
 80003d0:	fa02 f207 	lsl.w	r2, r2, r7
 80003d4:	d940      	bls.n	8000458 <__udivmoddi4+0x298>
 80003d6:	18e3      	adds	r3, r4, r3
 80003d8:	f108 30ff 	add.w	r0, r8, #4294967295
 80003dc:	d204      	bcs.n	80003e8 <__udivmoddi4+0x228>
 80003de:	459a      	cmp	sl, r3
 80003e0:	d902      	bls.n	80003e8 <__udivmoddi4+0x228>
 80003e2:	f1a8 0002 	sub.w	r0, r8, #2
 80003e6:	4423      	add	r3, r4
 80003e8:	eba3 030a 	sub.w	r3, r3, sl
 80003ec:	b289      	uxth	r1, r1
 80003ee:	fbb3 f8f9 	udiv	r8, r3, r9
 80003f2:	fb09 3318 	mls	r3, r9, r8, r3
 80003f6:	fb08 fe0e 	mul.w	lr, r8, lr
 80003fa:	ea41 4103 	orr.w	r1, r1, r3, lsl #16
 80003fe:	458e      	cmp	lr, r1
 8000400:	d92c      	bls.n	800045c <__udivmoddi4+0x29c>
 8000402:	1861      	adds	r1, r4, r1
 8000404:	f108 33ff 	add.w	r3, r8, #4294967295
 8000408:	d204      	bcs.n	8000414 <__udivmoddi4+0x254>
 800040a:	458e      	cmp	lr, r1
 800040c:	d902      	bls.n	8000414 <__udivmoddi4+0x254>
 800040e:	f1a8 0302 	sub.w	r3, r8, #2
 8000412:	4421      	add	r1, r4
 8000414:	ea43 4000 	orr.w	r0, r3, r0, lsl #16
 8000418:	fba0 9802 	umull	r9, r8, r0, r2
 800041c:	eba1 010e 	sub.w	r1, r1, lr
 8000420:	4541      	cmp	r1, r8
 8000422:	46ce      	mov	lr, r9
 8000424:	4643      	mov	r3, r8
 8000426:	d302      	bcc.n	800042e <__udivmoddi4+0x26e>
 8000428:	d106      	bne.n	8000438 <__udivmoddi4+0x278>
 800042a:	454d      	cmp	r5, r9
 800042c:	d204      	bcs.n	8000438 <__udivmoddi4+0x278>
 800042e:	ebb9 0e02 	subs.w	lr, r9, r2
 8000432:	eb68 0304 	sbc.w	r3, r8, r4
 8000436:	3801      	subs	r0, #1
 8000438:	2e00      	cmp	r6, #0
 800043a:	d0a6      	beq.n	800038a <__udivmoddi4+0x1ca>
 800043c:	ebb5 020e 	subs.w	r2, r5, lr
 8000440:	eb61 0103 	sbc.w	r1, r1, r3
 8000444:	fa01 fc0c 	lsl.w	ip, r1, ip
 8000448:	fa22 f307 	lsr.w	r3, r2, r7
 800044c:	ea4c 0303 	orr.w	r3, ip, r3
 8000450:	40f9      	lsrs	r1, r7
 8000452:	e9c6 3100 	strd	r3, r1, [r6]
 8000456:	e798      	b.n	800038a <__udivmoddi4+0x1ca>
 8000458:	4640      	mov	r0, r8
 800045a:	e7c5      	b.n	80003e8 <__udivmoddi4+0x228>
 800045c:	4643      	mov	r3, r8
 800045e:	e7d9      	b.n	8000414 <__udivmoddi4+0x254>

08000460 <main>:
 */
static const struct gpio_dt_spec led = GPIO_DT_SPEC_GET(LED0_NODE, gpios);
static const struct gpio_dt_spec button = GPIO_DT_SPEC_GET(BUTTON_NODE, gpios);

void main(void)
{
 8000460:	b537      	push	{r0, r1, r2, r4, r5, lr}
 */
__syscall bool device_is_ready(const struct device *dev);

static inline bool z_impl_device_is_ready(const struct device *dev)
{
	return z_device_is_ready(dev);
 8000462:	4815      	ldr	r0, [pc, #84]	; (80004b8 <main+0x58>)
 8000464:	f002 fcb9 	bl	8002dda <z_device_is_ready>
	int ret;

	if (!device_is_ready(led.port)) {
 8000468:	b318      	cbz	r0, 80004b2 <main+0x52>
		return;
	}

	ret = gpio_pin_configure_dt(&led, GPIO_OUTPUT_INACTIVE);
 800046a:	4814      	ldr	r0, [pc, #80]	; (80004bc <main+0x5c>)
 800046c:	f44f 11b0 	mov.w	r1, #1441792	; 0x160000
 8000470:	f002 f93f 	bl	80026f2 <gpio_pin_configure_dt>
	if (ret < 0) {
 8000474:	2800      	cmp	r0, #0
 8000476:	db1c      	blt.n	80004b2 <main+0x52>
		return;
	}
	
	ret = gpio_pin_configure_dt(&button, GPIO_INPUT);
 8000478:	4811      	ldr	r0, [pc, #68]	; (80004c0 <main+0x60>)
 800047a:	f44f 3180 	mov.w	r1, #65536	; 0x10000
 800047e:	f002 f938 	bl	80026f2 <gpio_pin_configure_dt>
	if (ret < 0) {
 8000482:	2800      	cmp	r0, #0
 8000484:	db15      	blt.n	80004b2 <main+0x52>
 * @retval -EWOULDBLOCK if operation would block.
 */
static inline int gpio_port_get(const struct device *port,
				gpio_port_value_t *value)
{
	const struct gpio_driver_data *const data =
 8000486:	4c0c      	ldr	r4, [pc, #48]	; (80004b8 <main+0x58>)
 8000488:	6925      	ldr	r5, [r4, #16]
	return api->port_get_raw(port, value);
 800048a:	68a3      	ldr	r3, [r4, #8]
 800048c:	480a      	ldr	r0, [pc, #40]	; (80004b8 <main+0x58>)
 800048e:	685b      	ldr	r3, [r3, #4]
 8000490:	a901      	add	r1, sp, #4
 8000492:	4798      	blx	r3
			(const struct gpio_driver_data *)port->data;
	int ret;

	ret = gpio_port_get_raw(port, value);
	if (ret == 0) {
 8000494:	b920      	cbnz	r0, 80004a0 <main+0x40>
		*value ^= data->invert;
 8000496:	682b      	ldr	r3, [r5, #0]
 8000498:	9801      	ldr	r0, [sp, #4]
 800049a:	4058      	eors	r0, r3
	__ASSERT((cfg->port_pin_mask & (gpio_port_pins_t)BIT(pin)) != 0U,
		 "Unsupported pin");

	ret = gpio_port_get(port, &value);
	if (ret == 0) {
		ret = (value & (gpio_port_pins_t)BIT(pin)) != 0 ? 1 : 0;
 800049c:	f3c0 1000 	ubfx	r0, r0, #4, #1
	}

	while (1) {
		int val = gpio_pin_get_dt(&button);
		
		if (val > 0){
 80004a0:	2800      	cmp	r0, #0
 * @param value Value assigned to the pin.
 * @return a value from gpio_pin_set()
 */
static inline int gpio_pin_set_dt(const struct gpio_dt_spec *spec, int value)
{
	return gpio_pin_set(spec->port, spec->pin, value);
 80004a2:	bfcc      	ite	gt
 80004a4:	2201      	movgt	r2, #1
 80004a6:	2200      	movle	r2, #0
 80004a8:	2103      	movs	r1, #3
 80004aa:	4620      	mov	r0, r4
 80004ac:	f002 f940 	bl	8002730 <gpio_pin_set.isra.0>
 80004b0:	e7eb      	b.n	800048a <main+0x2a>
		if (ret < 0) {
			return;
		}
		//k_msleep(SLEEP_TIME_MS);
	}
}
 80004b2:	b003      	add	sp, #12
 80004b4:	bd30      	pop	{r4, r5, pc}
 80004b6:	bf00      	nop
 80004b8:	08003034 	.word	0x08003034
 80004bc:	08003364 	.word	0x08003364
 80004c0:	0800335c 	.word	0x0800335c

080004c4 <char_out>:
}

static int char_out(int c, void *ctx_p)
{
	(void) ctx_p;
	return _char_out(c);
 80004c4:	4b01      	ldr	r3, [pc, #4]	; (80004cc <char_out+0x8>)
 80004c6:	681b      	ldr	r3, [r3, #0]
 80004c8:	4718      	bx	r3
 80004ca:	bf00      	nop
 80004cc:	20000000 	.word	0x20000000

080004d0 <__printk_hook_install>:
	_char_out = fn;
 80004d0:	4b01      	ldr	r3, [pc, #4]	; (80004d8 <__printk_hook_install+0x8>)
 80004d2:	6018      	str	r0, [r3, #0]
}
 80004d4:	4770      	bx	lr
 80004d6:	bf00      	nop
 80004d8:	20000000 	.word	0x20000000

080004dc <vprintk>:
}

void vprintk(const char *fmt, va_list ap)
{
 80004dc:	b507      	push	{r0, r1, r2, lr}
 80004de:	460b      	mov	r3, r1
int cbvprintf(cbprintf_cb out, void *ctx, const char *format, va_list ap);
#else
static inline
int cbvprintf(cbprintf_cb out, void *ctx, const char *format, va_list ap)
{
	return z_cbvprintf_impl(out, ctx, format, ap, 0);
 80004e0:	2100      	movs	r1, #0
 80004e2:	4602      	mov	r2, r0
 80004e4:	9100      	str	r1, [sp, #0]
 80004e6:	4803      	ldr	r0, [pc, #12]	; (80004f4 <vprintk+0x18>)
 80004e8:	f000 f806 	bl	80004f8 <z_cbvprintf_impl>

#ifdef CONFIG_PRINTK_SYNC
		k_spin_unlock(&lock, key);
#endif
	}
}
 80004ec:	b003      	add	sp, #12
 80004ee:	f85d fb04 	ldr.w	pc, [sp], #4
 80004f2:	bf00      	nop
 80004f4:	080004c5 	.word	0x080004c5

080004f8 <z_cbvprintf_impl>:
	return (int)count;
}

int z_cbvprintf_impl(cbprintf_cb out, void *ctx, const char *fp,
		     va_list ap, uint32_t flags)
{
 80004f8:	e92d 4ff0 	stmdb	sp!, {r4, r5, r6, r7, r8, r9, sl, fp, lr}
 80004fc:	4681      	mov	r9, r0
 80004fe:	b095      	sub	sp, #84	; 0x54
 8000500:	468b      	mov	fp, r1
 8000502:	4617      	mov	r7, r2
 8000504:	461c      	mov	r4, r3
	char buf[CONVERTED_BUFLEN];
	size_t count = 0;
 8000506:	2500      	movs	r5, #0
		return rc; \
	} \
	count += rc; \
} while (false)

	while (*fp != 0) {
 8000508:	7838      	ldrb	r0, [r7, #0]
 800050a:	b908      	cbnz	r0, 8000510 <z_cbvprintf_impl+0x18>
			OUTC(' ');
			--width;
		}
	}

	return count;
 800050c:	4628      	mov	r0, r5
 800050e:	e358      	b.n	8000bc2 <z_cbvprintf_impl+0x6ca>
			OUTC(*fp++);
 8000510:	1c7b      	adds	r3, r7, #1
		if (*fp != '%') {
 8000512:	2825      	cmp	r0, #37	; 0x25
			OUTC(*fp++);
 8000514:	9303      	str	r3, [sp, #12]
		if (*fp != '%') {
 8000516:	d006      	beq.n	8000526 <z_cbvprintf_impl+0x2e>
			OUTC('%');
 8000518:	4659      	mov	r1, fp
 800051a:	47c8      	blx	r9
 800051c:	2800      	cmp	r0, #0
 800051e:	f2c0 8350 	blt.w	8000bc2 <z_cbvprintf_impl+0x6ca>
 8000522:	3501      	adds	r5, #1
		if (bps == NULL) {
 8000524:	e1fb      	b.n	800091e <z_cbvprintf_impl+0x426>
		} state = {
 8000526:	2218      	movs	r2, #24
 8000528:	2100      	movs	r1, #0
 800052a:	a80e      	add	r0, sp, #56	; 0x38
 800052c:	f002 f9b5 	bl	800289a <memset>
	if (*sp == '%') {
 8000530:	787b      	ldrb	r3, [r7, #1]
 8000532:	2b25      	cmp	r3, #37	; 0x25
 8000534:	d07d      	beq.n	8000632 <z_cbvprintf_impl+0x13a>
 8000536:	2300      	movs	r3, #0
 8000538:	1c78      	adds	r0, r7, #1
 800053a:	4698      	mov	r8, r3
 800053c:	469e      	mov	lr, r3
 800053e:	469c      	mov	ip, r3
 8000540:	461e      	mov	r6, r3
 8000542:	4601      	mov	r1, r0
		switch (*sp) {
 8000544:	f810 2b01 	ldrb.w	r2, [r0], #1
 8000548:	2a2b      	cmp	r2, #43	; 0x2b
 800054a:	f000 80a1 	beq.w	8000690 <z_cbvprintf_impl+0x198>
 800054e:	f200 8098 	bhi.w	8000682 <z_cbvprintf_impl+0x18a>
 8000552:	2a20      	cmp	r2, #32
 8000554:	f000 809f 	beq.w	8000696 <z_cbvprintf_impl+0x19e>
 8000558:	2a23      	cmp	r2, #35	; 0x23
 800055a:	f000 809f 	beq.w	800069c <z_cbvprintf_impl+0x1a4>
 800055e:	b12b      	cbz	r3, 800056c <z_cbvprintf_impl+0x74>
 8000560:	f89d 3040 	ldrb.w	r3, [sp, #64]	; 0x40
 8000564:	f043 0340 	orr.w	r3, r3, #64	; 0x40
 8000568:	f88d 3040 	strb.w	r3, [sp, #64]	; 0x40
 800056c:	f1b8 0f00 	cmp.w	r8, #0
 8000570:	d005      	beq.n	800057e <z_cbvprintf_impl+0x86>
 8000572:	f89d 3040 	ldrb.w	r3, [sp, #64]	; 0x40
 8000576:	f043 0320 	orr.w	r3, r3, #32
 800057a:	f88d 3040 	strb.w	r3, [sp, #64]	; 0x40
 800057e:	f1be 0f00 	cmp.w	lr, #0
 8000582:	d005      	beq.n	8000590 <z_cbvprintf_impl+0x98>
 8000584:	f89d 3040 	ldrb.w	r3, [sp, #64]	; 0x40
 8000588:	f043 0310 	orr.w	r3, r3, #16
 800058c:	f88d 3040 	strb.w	r3, [sp, #64]	; 0x40
 8000590:	f1bc 0f00 	cmp.w	ip, #0
 8000594:	d005      	beq.n	80005a2 <z_cbvprintf_impl+0xaa>
 8000596:	f89d 3040 	ldrb.w	r3, [sp, #64]	; 0x40
 800059a:	f043 0308 	orr.w	r3, r3, #8
 800059e:	f88d 3040 	strb.w	r3, [sp, #64]	; 0x40
 80005a2:	b12e      	cbz	r6, 80005b0 <z_cbvprintf_impl+0xb8>
 80005a4:	f89d 3040 	ldrb.w	r3, [sp, #64]	; 0x40
 80005a8:	f043 0304 	orr.w	r3, r3, #4
 80005ac:	f88d 3040 	strb.w	r3, [sp, #64]	; 0x40
	if (conv->flag_zero && conv->flag_dash) {
 80005b0:	f89d 3040 	ldrb.w	r3, [sp, #64]	; 0x40
 80005b4:	f003 0044 	and.w	r0, r3, #68	; 0x44
 80005b8:	2844      	cmp	r0, #68	; 0x44
 80005ba:	d103      	bne.n	80005c4 <z_cbvprintf_impl+0xcc>
		conv->flag_zero = false;
 80005bc:	f36f 1386 	bfc	r3, #6, #1
 80005c0:	f88d 3040 	strb.w	r3, [sp, #64]	; 0x40
	conv->width_present = true;
 80005c4:	f89d 3040 	ldrb.w	r3, [sp, #64]	; 0x40
	if (*sp == '*') {
 80005c8:	2a2a      	cmp	r2, #42	; 0x2a
	conv->width_present = true;
 80005ca:	f043 0380 	orr.w	r3, r3, #128	; 0x80
 80005ce:	f88d 3040 	strb.w	r3, [sp, #64]	; 0x40
	if (*sp == '*') {
 80005d2:	d17f      	bne.n	80006d4 <z_cbvprintf_impl+0x1dc>
		conv->width_star = true;
 80005d4:	f89d 2041 	ldrb.w	r2, [sp, #65]	; 0x41
 80005d8:	f042 0201 	orr.w	r2, r2, #1
		return ++sp;
 80005dc:	1c4b      	adds	r3, r1, #1
		conv->width_star = true;
 80005de:	f88d 2041 	strb.w	r2, [sp, #65]	; 0x41
	conv->prec_present = (*sp == '.');
 80005e2:	781a      	ldrb	r2, [r3, #0]
 80005e4:	2a2e      	cmp	r2, #46	; 0x2e
 80005e6:	f89d 2041 	ldrb.w	r2, [sp, #65]	; 0x41
 80005ea:	bf0c      	ite	eq
 80005ec:	2101      	moveq	r1, #1
 80005ee:	2100      	movne	r1, #0
 80005f0:	f361 0241 	bfi	r2, r1, #1, #1
 80005f4:	f88d 2041 	strb.w	r2, [sp, #65]	; 0x41
	if (!conv->prec_present) {
 80005f8:	d178      	bne.n	80006ec <z_cbvprintf_impl+0x1f4>
	if (*sp == '*') {
 80005fa:	785a      	ldrb	r2, [r3, #1]
 80005fc:	2a2a      	cmp	r2, #42	; 0x2a
 80005fe:	d06e      	beq.n	80006de <z_cbvprintf_impl+0x1e6>
	++sp;
 8000600:	3301      	adds	r3, #1
	size_t val = 0;
 8000602:	2200      	movs	r2, #0
		val = 10U * val + *sp++ - '0';
 8000604:	f04f 0c0a 	mov.w	ip, #10
			(((unsigned)c) <= (unsigned)'~'));
}

static inline int isdigit(int a)
{
	return (int)(((unsigned)(a)-(unsigned)'0') < 10U);
 8000608:	4619      	mov	r1, r3
 800060a:	f811 0b01 	ldrb.w	r0, [r1], #1
 800060e:	f1a0 0630 	sub.w	r6, r0, #48	; 0x30
	while (isdigit((int)(unsigned char)*sp)) {
 8000612:	2e09      	cmp	r6, #9
 8000614:	f240 8095 	bls.w	8000742 <z_cbvprintf_impl+0x24a>
	conv->unsupported |= ((conv->prec_value < 0)
 8000618:	f89d 1040 	ldrb.w	r1, [sp, #64]	; 0x40
	conv->prec_value = prec;
 800061c:	9212      	str	r2, [sp, #72]	; 0x48
	conv->unsupported |= ((conv->prec_value < 0)
 800061e:	f3c1 0040 	ubfx	r0, r1, #1, #1
 8000622:	ea40 70d2 	orr.w	r0, r0, r2, lsr #31
 8000626:	460a      	mov	r2, r1
 8000628:	f360 0241 	bfi	r2, r0, #1, #1
 800062c:	f88d 2040 	strb.w	r2, [sp, #64]	; 0x40
	return sp;
 8000630:	e05c      	b.n	80006ec <z_cbvprintf_impl+0x1f4>
		conv->specifier = *sp++;
 8000632:	1cba      	adds	r2, r7, #2
 8000634:	9203      	str	r2, [sp, #12]
 8000636:	f88d 3043 	strb.w	r3, [sp, #67]	; 0x43
		if (conv->width_star) {
 800063a:	f89d 3041 	ldrb.w	r3, [sp, #65]	; 0x41
 800063e:	07da      	lsls	r2, r3, #31
 8000640:	f140 812e 	bpl.w	80008a0 <z_cbvprintf_impl+0x3a8>
			width = va_arg(ap, int);
 8000644:	f854 8b04 	ldr.w	r8, [r4], #4
			if (width < 0) {
 8000648:	f1b8 0f00 	cmp.w	r8, #0
 800064c:	da07      	bge.n	800065e <z_cbvprintf_impl+0x166>
				conv->flag_dash = true;
 800064e:	f89d 2040 	ldrb.w	r2, [sp, #64]	; 0x40
 8000652:	f042 0204 	orr.w	r2, r2, #4
 8000656:	f88d 2040 	strb.w	r2, [sp, #64]	; 0x40
				width = -width;
 800065a:	f1c8 0800 	rsb	r8, r8, #0
		if (conv->prec_star) {
 800065e:	075e      	lsls	r6, r3, #29
 8000660:	f140 8127 	bpl.w	80008b2 <z_cbvprintf_impl+0x3ba>
			int arg = va_arg(ap, int);
 8000664:	f854 ab04 	ldr.w	sl, [r4], #4
			if (arg < 0) {
 8000668:	f1ba 0f00 	cmp.w	sl, #0
 800066c:	f280 8126 	bge.w	80008bc <z_cbvprintf_impl+0x3c4>
				conv->prec_present = false;
 8000670:	f89d 3041 	ldrb.w	r3, [sp, #65]	; 0x41
 8000674:	f36f 0341 	bfc	r3, #1, #1
 8000678:	f88d 3041 	strb.w	r3, [sp, #65]	; 0x41
		int precision = -1;
 800067c:	f04f 3aff 	mov.w	sl, #4294967295
 8000680:	e11c      	b.n	80008bc <z_cbvprintf_impl+0x3c4>
		switch (*sp) {
 8000682:	2a2d      	cmp	r2, #45	; 0x2d
 8000684:	d00d      	beq.n	80006a2 <z_cbvprintf_impl+0x1aa>
 8000686:	2a30      	cmp	r2, #48	; 0x30
 8000688:	f47f af69 	bne.w	800055e <z_cbvprintf_impl+0x66>
 800068c:	2301      	movs	r3, #1
	} while (loop);
 800068e:	e758      	b.n	8000542 <z_cbvprintf_impl+0x4a>
		switch (*sp) {
 8000690:	f04f 0c01 	mov.w	ip, #1
 8000694:	e755      	b.n	8000542 <z_cbvprintf_impl+0x4a>
 8000696:	f04f 0e01 	mov.w	lr, #1
 800069a:	e752      	b.n	8000542 <z_cbvprintf_impl+0x4a>
 800069c:	f04f 0801 	mov.w	r8, #1
 80006a0:	e74f      	b.n	8000542 <z_cbvprintf_impl+0x4a>
 80006a2:	2601      	movs	r6, #1
 80006a4:	e74d      	b.n	8000542 <z_cbvprintf_impl+0x4a>
		val = 10U * val + *sp++ - '0';
 80006a6:	fb0e 6202 	mla	r2, lr, r2, r6
 80006aa:	3a30      	subs	r2, #48	; 0x30
 80006ac:	4603      	mov	r3, r0
 80006ae:	4618      	mov	r0, r3
 80006b0:	f810 6b01 	ldrb.w	r6, [r0], #1
 80006b4:	f1a6 0c30 	sub.w	ip, r6, #48	; 0x30
	while (isdigit((int)(unsigned char)*sp)) {
 80006b8:	f1bc 0f09 	cmp.w	ip, #9
 80006bc:	d9f3      	bls.n	80006a6 <z_cbvprintf_impl+0x1ae>
	if (sp != wp) {
 80006be:	4299      	cmp	r1, r3
 80006c0:	d08f      	beq.n	80005e2 <z_cbvprintf_impl+0xea>
		conv->unsupported |= ((conv->width_value < 0)
 80006c2:	f89d 1040 	ldrb.w	r1, [sp, #64]	; 0x40
		conv->width_value = width;
 80006c6:	9211      	str	r2, [sp, #68]	; 0x44
				      || (width != (size_t)conv->width_value));
 80006c8:	0fd2      	lsrs	r2, r2, #31
		conv->unsupported |= ((conv->width_value < 0)
 80006ca:	f362 0141 	bfi	r1, r2, #1, #1
 80006ce:	f88d 1040 	strb.w	r1, [sp, #64]	; 0x40
 80006d2:	e786      	b.n	80005e2 <z_cbvprintf_impl+0xea>
 80006d4:	460b      	mov	r3, r1
	size_t val = 0;
 80006d6:	2200      	movs	r2, #0
		val = 10U * val + *sp++ - '0';
 80006d8:	f04f 0e0a 	mov.w	lr, #10
 80006dc:	e7e7      	b.n	80006ae <z_cbvprintf_impl+0x1b6>
		conv->prec_star = true;
 80006de:	f89d 2041 	ldrb.w	r2, [sp, #65]	; 0x41
 80006e2:	f042 0204 	orr.w	r2, r2, #4
 80006e6:	f88d 2041 	strb.w	r2, [sp, #65]	; 0x41
		return ++sp;
 80006ea:	3302      	adds	r3, #2
	switch (*sp) {
 80006ec:	781a      	ldrb	r2, [r3, #0]
 80006ee:	2a6c      	cmp	r2, #108	; 0x6c
 80006f0:	d047      	beq.n	8000782 <z_cbvprintf_impl+0x28a>
 80006f2:	d82b      	bhi.n	800074c <z_cbvprintf_impl+0x254>
 80006f4:	2a68      	cmp	r2, #104	; 0x68
 80006f6:	d031      	beq.n	800075c <z_cbvprintf_impl+0x264>
 80006f8:	2a6a      	cmp	r2, #106	; 0x6a
 80006fa:	d04b      	beq.n	8000794 <z_cbvprintf_impl+0x29c>
 80006fc:	2a4c      	cmp	r2, #76	; 0x4c
 80006fe:	d051      	beq.n	80007a4 <z_cbvprintf_impl+0x2ac>
	conv->specifier = *sp++;
 8000700:	461a      	mov	r2, r3
 8000702:	f812 3b01 	ldrb.w	r3, [r2], #1
 8000706:	9203      	str	r2, [sp, #12]
	switch (conv->specifier) {
 8000708:	2b78      	cmp	r3, #120	; 0x78
		if (conv->length_mod == LENGTH_UPPER_L) {
 800070a:	f89d 2041 	ldrb.w	r2, [sp, #65]	; 0x41
	conv->specifier = *sp++;
 800070e:	f88d 3043 	strb.w	r3, [sp, #67]	; 0x43
	switch (conv->specifier) {
 8000712:	f200 80be 	bhi.w	8000892 <z_cbvprintf_impl+0x39a>
 8000716:	2b6d      	cmp	r3, #109	; 0x6d
 8000718:	d851      	bhi.n	80007be <z_cbvprintf_impl+0x2c6>
 800071a:	2b69      	cmp	r3, #105	; 0x69
 800071c:	f200 80b9 	bhi.w	8000892 <z_cbvprintf_impl+0x39a>
 8000720:	2b57      	cmp	r3, #87	; 0x57
 8000722:	d867      	bhi.n	80007f4 <z_cbvprintf_impl+0x2fc>
 8000724:	2b41      	cmp	r3, #65	; 0x41
 8000726:	d003      	beq.n	8000730 <z_cbvprintf_impl+0x238>
 8000728:	3b45      	subs	r3, #69	; 0x45
 800072a:	2b02      	cmp	r3, #2
 800072c:	f200 80b1 	bhi.w	8000892 <z_cbvprintf_impl+0x39a>
		conv->specifier_cat = SPECIFIER_FP;
 8000730:	f89d 3042 	ldrb.w	r3, [sp, #66]	; 0x42
 8000734:	2204      	movs	r2, #4
 8000736:	f362 0302 	bfi	r3, r2, #0, #3
 800073a:	f88d 3042 	strb.w	r3, [sp, #66]	; 0x42
			unsupported = true;
 800073e:	2301      	movs	r3, #1
			break;
 8000740:	e073      	b.n	800082a <z_cbvprintf_impl+0x332>
		val = 10U * val + *sp++ - '0';
 8000742:	fb0c 0202 	mla	r2, ip, r2, r0
 8000746:	3a30      	subs	r2, #48	; 0x30
 8000748:	460b      	mov	r3, r1
 800074a:	e75d      	b.n	8000608 <z_cbvprintf_impl+0x110>
	switch (*sp) {
 800074c:	2a74      	cmp	r2, #116	; 0x74
 800074e:	d025      	beq.n	800079c <z_cbvprintf_impl+0x2a4>
 8000750:	2a7a      	cmp	r2, #122	; 0x7a
 8000752:	d1d5      	bne.n	8000700 <z_cbvprintf_impl+0x208>
		conv->length_mod = LENGTH_Z;
 8000754:	f89d 2041 	ldrb.w	r2, [sp, #65]	; 0x41
 8000758:	2106      	movs	r1, #6
 800075a:	e00c      	b.n	8000776 <z_cbvprintf_impl+0x27e>
		if (*++sp == 'h') {
 800075c:	785a      	ldrb	r2, [r3, #1]
 800075e:	2a68      	cmp	r2, #104	; 0x68
 8000760:	f89d 2041 	ldrb.w	r2, [sp, #65]	; 0x41
 8000764:	d106      	bne.n	8000774 <z_cbvprintf_impl+0x27c>
			conv->length_mod = LENGTH_HH;
 8000766:	2101      	movs	r1, #1
			conv->length_mod = LENGTH_LL;
 8000768:	f361 02c6 	bfi	r2, r1, #3, #4
 800076c:	f88d 2041 	strb.w	r2, [sp, #65]	; 0x41
			++sp;
 8000770:	3302      	adds	r3, #2
 8000772:	e7c5      	b.n	8000700 <z_cbvprintf_impl+0x208>
			conv->length_mod = LENGTH_H;
 8000774:	2102      	movs	r1, #2
 8000776:	f361 02c6 	bfi	r2, r1, #3, #4
 800077a:	f88d 2041 	strb.w	r2, [sp, #65]	; 0x41
		if (*++sp == 'h') {
 800077e:	3301      	adds	r3, #1
 8000780:	e7be      	b.n	8000700 <z_cbvprintf_impl+0x208>
		if (*++sp == 'l') {
 8000782:	785a      	ldrb	r2, [r3, #1]
 8000784:	2a6c      	cmp	r2, #108	; 0x6c
 8000786:	f89d 2041 	ldrb.w	r2, [sp, #65]	; 0x41
 800078a:	d101      	bne.n	8000790 <z_cbvprintf_impl+0x298>
			conv->length_mod = LENGTH_LL;
 800078c:	2104      	movs	r1, #4
 800078e:	e7eb      	b.n	8000768 <z_cbvprintf_impl+0x270>
			conv->length_mod = LENGTH_L;
 8000790:	2103      	movs	r1, #3
 8000792:	e7f0      	b.n	8000776 <z_cbvprintf_impl+0x27e>
		conv->length_mod = LENGTH_J;
 8000794:	f89d 2041 	ldrb.w	r2, [sp, #65]	; 0x41
 8000798:	2105      	movs	r1, #5
 800079a:	e7ec      	b.n	8000776 <z_cbvprintf_impl+0x27e>
		conv->length_mod = LENGTH_T;
 800079c:	f89d 2041 	ldrb.w	r2, [sp, #65]	; 0x41
 80007a0:	2107      	movs	r1, #7
 80007a2:	e7e8      	b.n	8000776 <z_cbvprintf_impl+0x27e>
		conv->unsupported = true;
 80007a4:	f8bd 2040 	ldrh.w	r2, [sp, #64]	; 0x40
 80007a8:	f422 42f0 	bic.w	r2, r2, #30720	; 0x7800
 80007ac:	f022 0202 	bic.w	r2, r2, #2
 80007b0:	f442 4280 	orr.w	r2, r2, #16384	; 0x4000
 80007b4:	f042 0202 	orr.w	r2, r2, #2
 80007b8:	f8ad 2040 	strh.w	r2, [sp, #64]	; 0x40
		break;
 80007bc:	e7df      	b.n	800077e <z_cbvprintf_impl+0x286>
	switch (conv->specifier) {
 80007be:	3b6e      	subs	r3, #110	; 0x6e
 80007c0:	b2d9      	uxtb	r1, r3
 80007c2:	2301      	movs	r3, #1
 80007c4:	408b      	lsls	r3, r1
 80007c6:	f240 4182 	movw	r1, #1154	; 0x482
 80007ca:	420b      	tst	r3, r1
 80007cc:	d137      	bne.n	800083e <z_cbvprintf_impl+0x346>
 80007ce:	f013 0f24 	tst.w	r3, #36	; 0x24
 80007d2:	d151      	bne.n	8000878 <z_cbvprintf_impl+0x380>
 80007d4:	07d8      	lsls	r0, r3, #31
 80007d6:	d55c      	bpl.n	8000892 <z_cbvprintf_impl+0x39a>
		conv->specifier_cat = SPECIFIER_PTR;
 80007d8:	f89d 3042 	ldrb.w	r3, [sp, #66]	; 0x42
 80007dc:	2103      	movs	r1, #3
 80007de:	f361 0302 	bfi	r3, r1, #0, #3
 80007e2:	f88d 3042 	strb.w	r3, [sp, #66]	; 0x42
		if (conv->length_mod == LENGTH_UPPER_L) {
 80007e6:	f002 0378 	and.w	r3, r2, #120	; 0x78
 80007ea:	f1a3 0140 	sub.w	r1, r3, #64	; 0x40
 80007ee:	424b      	negs	r3, r1
 80007f0:	414b      	adcs	r3, r1
 80007f2:	e01a      	b.n	800082a <z_cbvprintf_impl+0x332>
	switch (conv->specifier) {
 80007f4:	f1a3 0158 	sub.w	r1, r3, #88	; 0x58
 80007f8:	b2c9      	uxtb	r1, r1
 80007fa:	2001      	movs	r0, #1
 80007fc:	fa00 f101 	lsl.w	r1, r0, r1
 8000800:	f411 4f62 	tst.w	r1, #57856	; 0xe200
 8000804:	d194      	bne.n	8000730 <z_cbvprintf_impl+0x238>
 8000806:	f640 0601 	movw	r6, #2049	; 0x801
 800080a:	4231      	tst	r1, r6
 800080c:	d11d      	bne.n	800084a <z_cbvprintf_impl+0x352>
 800080e:	f411 3f04 	tst.w	r1, #135168	; 0x21000
 8000812:	d03e      	beq.n	8000892 <z_cbvprintf_impl+0x39a>
		conv->specifier_cat = SPECIFIER_SINT;
 8000814:	f89d 3042 	ldrb.w	r3, [sp, #66]	; 0x42
 8000818:	f360 0302 	bfi	r3, r0, #0, #3
		if (conv->length_mod == LENGTH_UPPER_L) {
 800081c:	f002 0278 	and.w	r2, r2, #120	; 0x78
 8000820:	2a40      	cmp	r2, #64	; 0x40
		conv->specifier_cat = SPECIFIER_SINT;
 8000822:	f88d 3042 	strb.w	r3, [sp, #66]	; 0x42
		if (conv->length_mod == LENGTH_UPPER_L) {
 8000826:	d034      	beq.n	8000892 <z_cbvprintf_impl+0x39a>
	bool unsupported = false;
 8000828:	2300      	movs	r3, #0
	conv->unsupported |= unsupported;
 800082a:	f89d 2040 	ldrb.w	r2, [sp, #64]	; 0x40
 800082e:	f3c2 0140 	ubfx	r1, r2, #1, #1
 8000832:	430b      	orrs	r3, r1
 8000834:	f363 0241 	bfi	r2, r3, #1, #1
 8000838:	f88d 2040 	strb.w	r2, [sp, #64]	; 0x40
	return sp;
 800083c:	e6fd      	b.n	800063a <z_cbvprintf_impl+0x142>
		conv->specifier_cat = SPECIFIER_UINT;
 800083e:	f89d 3042 	ldrb.w	r3, [sp, #66]	; 0x42
 8000842:	2102      	movs	r1, #2
 8000844:	f361 0302 	bfi	r3, r1, #0, #3
 8000848:	e7e8      	b.n	800081c <z_cbvprintf_impl+0x324>
 800084a:	f89d 1042 	ldrb.w	r1, [sp, #66]	; 0x42
 800084e:	2002      	movs	r0, #2
		if (conv->length_mod == LENGTH_UPPER_L) {
 8000850:	f002 0278 	and.w	r2, r2, #120	; 0x78
		conv->specifier_cat = SPECIFIER_UINT;
 8000854:	f360 0102 	bfi	r1, r0, #0, #3
		if (conv->length_mod == LENGTH_UPPER_L) {
 8000858:	2a40      	cmp	r2, #64	; 0x40
		conv->specifier_cat = SPECIFIER_UINT;
 800085a:	f88d 1042 	strb.w	r1, [sp, #66]	; 0x42
			conv->invalid = true;
 800085e:	bf02      	ittt	eq
 8000860:	f89d 1040 	ldrbeq.w	r1, [sp, #64]	; 0x40
 8000864:	f041 0101 	orreq.w	r1, r1, #1
 8000868:	f88d 1040 	strbeq.w	r1, [sp, #64]	; 0x40
		if (conv->specifier == 'c') {
 800086c:	2b63      	cmp	r3, #99	; 0x63
 800086e:	d1db      	bne.n	8000828 <z_cbvprintf_impl+0x330>
			unsupported = (conv->length_mod != LENGTH_NONE);
 8000870:	1e13      	subs	r3, r2, #0
 8000872:	bf18      	it	ne
 8000874:	2301      	movne	r3, #1
 8000876:	e7d8      	b.n	800082a <z_cbvprintf_impl+0x332>
		conv->specifier_cat = SPECIFIER_PTR;
 8000878:	f89d 3042 	ldrb.w	r3, [sp, #66]	; 0x42
 800087c:	2103      	movs	r1, #3
 800087e:	f361 0302 	bfi	r3, r1, #0, #3
		if (conv->length_mod != LENGTH_NONE) {
 8000882:	f012 0f78 	tst.w	r2, #120	; 0x78
		conv->specifier_cat = SPECIFIER_PTR;
 8000886:	f88d 3042 	strb.w	r3, [sp, #66]	; 0x42
		if (conv->length_mod != LENGTH_NONE) {
 800088a:	bf14      	ite	ne
 800088c:	2301      	movne	r3, #1
 800088e:	2300      	moveq	r3, #0
 8000890:	e7cb      	b.n	800082a <z_cbvprintf_impl+0x332>
		conv->invalid = true;
 8000892:	f89d 3040 	ldrb.w	r3, [sp, #64]	; 0x40
 8000896:	f043 0301 	orr.w	r3, r3, #1
 800089a:	f88d 3040 	strb.w	r3, [sp, #64]	; 0x40
		break;
 800089e:	e7c3      	b.n	8000828 <z_cbvprintf_impl+0x330>
		} else if (conv->width_present) {
 80008a0:	f99d 2040 	ldrsb.w	r2, [sp, #64]	; 0x40
 80008a4:	2a00      	cmp	r2, #0
			width = conv->width_value;
 80008a6:	bfb4      	ite	lt
 80008a8:	f8dd 8044 	ldrlt.w	r8, [sp, #68]	; 0x44
		int width = -1;
 80008ac:	f04f 38ff 	movge.w	r8, #4294967295
 80008b0:	e6d5      	b.n	800065e <z_cbvprintf_impl+0x166>
		} else if (conv->prec_present) {
 80008b2:	0798      	lsls	r0, r3, #30
 80008b4:	f57f aee2 	bpl.w	800067c <z_cbvprintf_impl+0x184>
			precision = conv->prec_value;
 80008b8:	f8dd a048 	ldr.w	sl, [sp, #72]	; 0x48
			= (enum length_mod_enum)conv->length_mod;
 80008bc:	f89d 1041 	ldrb.w	r1, [sp, #65]	; 0x41
		conv->pad0_value = 0;
 80008c0:	2300      	movs	r3, #0
		conv->pad0_pre_exp = 0;
 80008c2:	e9cd 3311 	strd	r3, r3, [sp, #68]	; 0x44
			= (enum specifier_cat_enum)conv->specifier_cat;
 80008c6:	f89d 3042 	ldrb.w	r3, [sp, #66]	; 0x42
		enum specifier_cat_enum specifier_cat
 80008ca:	f003 0307 	and.w	r3, r3, #7
		if (specifier_cat == SPECIFIER_SINT) {
 80008ce:	2b01      	cmp	r3, #1
			= (enum length_mod_enum)conv->length_mod;
 80008d0:	f3c1 01c3 	ubfx	r1, r1, #3, #4
		if (specifier_cat == SPECIFIER_SINT) {
 80008d4:	d133      	bne.n	800093e <z_cbvprintf_impl+0x446>
			switch (length_mod) {
 80008d6:	1ecb      	subs	r3, r1, #3
 80008d8:	2b04      	cmp	r3, #4
 80008da:	d804      	bhi.n	80008e6 <z_cbvprintf_impl+0x3ee>
 80008dc:	e8df f003 	tbb	[pc, r3]
 80008e0:	21464621 	.word	0x21464621
 80008e4:	21          	.byte	0x21
 80008e5:	00          	.byte	0x00
				value->sint = va_arg(ap, int);
 80008e6:	6823      	ldr	r3, [r4, #0]
			if (length_mod == LENGTH_HH) {
 80008e8:	2901      	cmp	r1, #1
				value->sint = va_arg(ap, int);
 80008ea:	ea4f 72e3 	mov.w	r2, r3, asr #31
 80008ee:	e9cd 320e 	strd	r3, r2, [sp, #56]	; 0x38
			if (length_mod == LENGTH_HH) {
 80008f2:	d11c      	bne.n	800092e <z_cbvprintf_impl+0x436>
				value->sint = (signed char)value->sint;
 80008f4:	f99d 3038 	ldrsb.w	r3, [sp, #56]	; 0x38
 80008f8:	17da      	asrs	r2, r3, #31
 80008fa:	e9cd 320e 	strd	r3, r2, [sp, #56]	; 0x38
				value->sint = va_arg(ap, int);
 80008fe:	3404      	adds	r4, #4
		if (conv->invalid || conv->unsupported) {
 8000900:	f89d 3040 	ldrb.w	r3, [sp, #64]	; 0x40
 8000904:	f013 0603 	ands.w	r6, r3, #3
 8000908:	d050      	beq.n	80009ac <z_cbvprintf_impl+0x4b4>
			OUTS(sp, fp);
 800090a:	9b03      	ldr	r3, [sp, #12]
 800090c:	463a      	mov	r2, r7
 800090e:	4659      	mov	r1, fp
 8000910:	4648      	mov	r0, r9
 8000912:	f001 ff7c 	bl	800280e <outs>
 8000916:	2800      	cmp	r0, #0
 8000918:	f2c0 8153 	blt.w	8000bc2 <z_cbvprintf_impl+0x6ca>
 800091c:	4405      	add	r5, r0
			continue;
 800091e:	9f03      	ldr	r7, [sp, #12]
 8000920:	e5f2      	b.n	8000508 <z_cbvprintf_impl+0x10>
					(sint_value_type)va_arg(ap, ptrdiff_t);
 8000922:	f854 3b04 	ldr.w	r3, [r4], #4
 8000926:	17da      	asrs	r2, r3, #31
				value->uint = (unsigned char)value->uint;
 8000928:	e9cd 320e 	strd	r3, r2, [sp, #56]	; 0x38
 800092c:	e7e8      	b.n	8000900 <z_cbvprintf_impl+0x408>
			} else if (length_mod == LENGTH_H) {
 800092e:	2902      	cmp	r1, #2
 8000930:	d1e5      	bne.n	80008fe <z_cbvprintf_impl+0x406>
				value->sint = (short)value->sint;
 8000932:	b21a      	sxth	r2, r3
 8000934:	f343 33c0 	sbfx	r3, r3, #15, #1
 8000938:	e9cd 230e 	strd	r2, r3, [sp, #56]	; 0x38
 800093c:	e7df      	b.n	80008fe <z_cbvprintf_impl+0x406>
		} else if (specifier_cat == SPECIFIER_UINT) {
 800093e:	2b02      	cmp	r3, #2
 8000940:	d124      	bne.n	800098c <z_cbvprintf_impl+0x494>
			switch (length_mod) {
 8000942:	1ecb      	subs	r3, r1, #3
 8000944:	2b04      	cmp	r3, #4
 8000946:	d804      	bhi.n	8000952 <z_cbvprintf_impl+0x45a>
 8000948:	e8df f003 	tbb	[pc, r3]
 800094c:	18101018 	.word	0x18101018
 8000950:	18          	.byte	0x18
 8000951:	00          	.byte	0x00
			if (length_mod == LENGTH_HH) {
 8000952:	2901      	cmp	r1, #1
				value->uint = va_arg(ap, unsigned int);
 8000954:	f854 3b04 	ldr.w	r3, [r4], #4
			if (length_mod == LENGTH_HH) {
 8000958:	f04f 0200 	mov.w	r2, #0
 800095c:	d014      	beq.n	8000988 <z_cbvprintf_impl+0x490>
			} else if (length_mod == LENGTH_H) {
 800095e:	2902      	cmp	r1, #2
				value->uint = va_arg(ap, unsigned int);
 8000960:	e9cd 320e 	strd	r3, r2, [sp, #56]	; 0x38
			} else if (length_mod == LENGTH_H) {
 8000964:	d1cc      	bne.n	8000900 <z_cbvprintf_impl+0x408>
				value->uint = (unsigned short)value->uint;
 8000966:	b29b      	uxth	r3, r3
			value->ptr = va_arg(ap, void *);
 8000968:	930e      	str	r3, [sp, #56]	; 0x38
 800096a:	e7c9      	b.n	8000900 <z_cbvprintf_impl+0x408>
					(uint_value_type)va_arg(ap,
 800096c:	3407      	adds	r4, #7
 800096e:	f024 0407 	bic.w	r4, r4, #7
				value->uint =
 8000972:	e8f4 2302 	ldrd	r2, r3, [r4], #8
 8000976:	e9cd 230e 	strd	r2, r3, [sp, #56]	; 0x38
			if (length_mod == LENGTH_HH) {
 800097a:	e7c1      	b.n	8000900 <z_cbvprintf_impl+0x408>
					(uint_value_type)va_arg(ap, size_t);
 800097c:	f854 3b04 	ldr.w	r3, [r4], #4
 8000980:	930e      	str	r3, [sp, #56]	; 0x38
 8000982:	2300      	movs	r3, #0
 8000984:	930f      	str	r3, [sp, #60]	; 0x3c
			} else if (length_mod == LENGTH_H) {
 8000986:	e7bb      	b.n	8000900 <z_cbvprintf_impl+0x408>
				value->uint = (unsigned char)value->uint;
 8000988:	b2db      	uxtb	r3, r3
 800098a:	e7cd      	b.n	8000928 <z_cbvprintf_impl+0x430>
		} else if (specifier_cat == SPECIFIER_FP) {
 800098c:	2b04      	cmp	r3, #4
 800098e:	d108      	bne.n	80009a2 <z_cbvprintf_impl+0x4aa>
					(sint_value_type)va_arg(ap, long long);
 8000990:	3407      	adds	r4, #7
				value->ldbl = va_arg(ap, long double);
 8000992:	f024 0407 	bic.w	r4, r4, #7
 8000996:	e9d4 2300 	ldrd	r2, r3, [r4]
 800099a:	3408      	adds	r4, #8
 800099c:	e9cd 230e 	strd	r2, r3, [sp, #56]	; 0x38
 80009a0:	e7ae      	b.n	8000900 <z_cbvprintf_impl+0x408>
		} else if (specifier_cat == SPECIFIER_PTR) {
 80009a2:	2b03      	cmp	r3, #3
 80009a4:	d1ac      	bne.n	8000900 <z_cbvprintf_impl+0x408>
			value->ptr = va_arg(ap, void *);
 80009a6:	f854 3b04 	ldr.w	r3, [r4], #4
 80009aa:	e7dd      	b.n	8000968 <z_cbvprintf_impl+0x470>
		switch (conv->specifier) {
 80009ac:	f89d 0043 	ldrb.w	r0, [sp, #67]	; 0x43
 80009b0:	2878      	cmp	r0, #120	; 0x78
 80009b2:	d8b4      	bhi.n	800091e <z_cbvprintf_impl+0x426>
 80009b4:	2862      	cmp	r0, #98	; 0x62
 80009b6:	d81c      	bhi.n	80009f2 <z_cbvprintf_impl+0x4fa>
 80009b8:	2825      	cmp	r0, #37	; 0x25
 80009ba:	f43f adad 	beq.w	8000518 <z_cbvprintf_impl+0x20>
 80009be:	2858      	cmp	r0, #88	; 0x58
 80009c0:	d1ad      	bne.n	800091e <z_cbvprintf_impl+0x426>
			bps = encode_uint(value->uint, conv, buf, bpe);
 80009c2:	f10d 0336 	add.w	r3, sp, #54	; 0x36
 80009c6:	9300      	str	r3, [sp, #0]
 80009c8:	e9dd 010e 	ldrd	r0, r1, [sp, #56]	; 0x38
 80009cc:	ab08      	add	r3, sp, #32
 80009ce:	aa10      	add	r2, sp, #64	; 0x40
 80009d0:	f001 fed7 	bl	8002782 <encode_uint>
			if (precision >= 0) {
 80009d4:	f1ba 0f00 	cmp.w	sl, #0
			bps = encode_uint(value->uint, conv, buf, bpe);
 80009d8:	4607      	mov	r7, r0
			if (precision >= 0) {
 80009da:	f280 809a 	bge.w	8000b12 <z_cbvprintf_impl+0x61a>
		if (bps == NULL) {
 80009de:	2f00      	cmp	r7, #0
 80009e0:	d09d      	beq.n	800091e <z_cbvprintf_impl+0x426>
		size_t nj_len = (bpe - bps);
 80009e2:	f10d 0336 	add.w	r3, sp, #54	; 0x36
 80009e6:	1bd8      	subs	r0, r3, r7
		if (sign != 0) {
 80009e8:	2e00      	cmp	r6, #0
 80009ea:	f000 80c1 	beq.w	8000b70 <z_cbvprintf_impl+0x678>
			nj_len += 1U;
 80009ee:	3001      	adds	r0, #1
 80009f0:	e0be      	b.n	8000b70 <z_cbvprintf_impl+0x678>
		switch (conv->specifier) {
 80009f2:	3863      	subs	r0, #99	; 0x63
 80009f4:	2815      	cmp	r0, #21
 80009f6:	d892      	bhi.n	800091e <z_cbvprintf_impl+0x426>
 80009f8:	a201      	add	r2, pc, #4	; (adr r2, 8000a00 <z_cbvprintf_impl+0x508>)
 80009fa:	f852 f020 	ldr.w	pc, [r2, r0, lsl #2]
 80009fe:	bf00      	nop
 8000a00:	08000ad5 	.word	0x08000ad5
 8000a04:	08000ae7 	.word	0x08000ae7
 8000a08:	0800091f 	.word	0x0800091f
 8000a0c:	0800091f 	.word	0x0800091f
 8000a10:	0800091f 	.word	0x0800091f
 8000a14:	0800091f 	.word	0x0800091f
 8000a18:	08000ae7 	.word	0x08000ae7
 8000a1c:	0800091f 	.word	0x0800091f
 8000a20:	0800091f 	.word	0x0800091f
 8000a24:	0800091f 	.word	0x0800091f
 8000a28:	0800091f 	.word	0x0800091f
 8000a2c:	08000b75 	.word	0x08000b75
 8000a30:	08000b0d 	.word	0x08000b0d
 8000a34:	08000b33 	.word	0x08000b33
 8000a38:	0800091f 	.word	0x0800091f
 8000a3c:	0800091f 	.word	0x0800091f
 8000a40:	08000a59 	.word	0x08000a59
 8000a44:	0800091f 	.word	0x0800091f
 8000a48:	08000b0d 	.word	0x08000b0d
 8000a4c:	0800091f 	.word	0x0800091f
 8000a50:	0800091f 	.word	0x0800091f
 8000a54:	08000b0d 	.word	0x08000b0d
			if (precision >= 0) {
 8000a58:	f1ba 0f00 	cmp.w	sl, #0
			bps = (const char *)value->ptr;
 8000a5c:	9f0e      	ldr	r7, [sp, #56]	; 0x38
			if (precision >= 0) {
 8000a5e:	db35      	blt.n	8000acc <z_cbvprintf_impl+0x5d4>
				len = strnlen(bps, precision);
 8000a60:	4651      	mov	r1, sl
 8000a62:	4638      	mov	r0, r7
 8000a64:	f001 ff05 	bl	8002872 <strnlen>
			bpe = bps + len;
 8000a68:	eb07 0a00 	add.w	sl, r7, r0
		if (bps == NULL) {
 8000a6c:	2f00      	cmp	r7, #0
 8000a6e:	f43f af56 	beq.w	800091e <z_cbvprintf_impl+0x426>
		char sign = 0;
 8000a72:	2600      	movs	r6, #0
		if (conv->altform_0c) {
 8000a74:	f89d 3042 	ldrb.w	r3, [sp, #66]	; 0x42
 8000a78:	f013 0210 	ands.w	r2, r3, #16
 8000a7c:	9205      	str	r2, [sp, #20]
 8000a7e:	f000 8093 	beq.w	8000ba8 <z_cbvprintf_impl+0x6b0>
			nj_len += 2U;
 8000a82:	3002      	adds	r0, #2
		if (conv->pad_fp) {
 8000a84:	065b      	lsls	r3, r3, #25
		nj_len += conv->pad0_value;
 8000a86:	9a11      	ldr	r2, [sp, #68]	; 0x44
			nj_len += conv->pad0_pre_exp;
 8000a88:	bf48      	it	mi
 8000a8a:	9b12      	ldrmi	r3, [sp, #72]	; 0x48
		nj_len += conv->pad0_value;
 8000a8c:	9204      	str	r2, [sp, #16]
 8000a8e:	4410      	add	r0, r2
			nj_len += conv->pad0_pre_exp;
 8000a90:	bf48      	it	mi
 8000a92:	18c0      	addmi	r0, r0, r3
		if (width > 0) {
 8000a94:	f1b8 0f00 	cmp.w	r8, #0
 8000a98:	f340 80a0 	ble.w	8000bdc <z_cbvprintf_impl+0x6e4>
			if (!conv->flag_dash) {
 8000a9c:	f89d 2040 	ldrb.w	r2, [sp, #64]	; 0x40
			width -= (int)nj_len;
 8000aa0:	eba8 0800 	sub.w	r8, r8, r0
			if (!conv->flag_dash) {
 8000aa4:	f3c2 0380 	ubfx	r3, r2, #2, #1
 8000aa8:	0750      	lsls	r0, r2, #29
 8000aaa:	9306      	str	r3, [sp, #24]
 8000aac:	f100 8096 	bmi.w	8000bdc <z_cbvprintf_impl+0x6e4>
				if (conv->flag_zero) {
 8000ab0:	0651      	lsls	r1, r2, #25
 8000ab2:	f140 8089 	bpl.w	8000bc8 <z_cbvprintf_impl+0x6d0>
					if (sign != 0) {
 8000ab6:	b13e      	cbz	r6, 8000ac8 <z_cbvprintf_impl+0x5d0>
						OUTC(sign);
 8000ab8:	4659      	mov	r1, fp
 8000aba:	4630      	mov	r0, r6
 8000abc:	47c8      	blx	r9
 8000abe:	2800      	cmp	r0, #0
 8000ac0:	db7f      	blt.n	8000bc2 <z_cbvprintf_impl+0x6ca>
 8000ac2:	9b06      	ldr	r3, [sp, #24]
 8000ac4:	3501      	adds	r5, #1
 8000ac6:	461e      	mov	r6, r3
					pad = '0';
 8000ac8:	2230      	movs	r2, #48	; 0x30
 8000aca:	e07e      	b.n	8000bca <z_cbvprintf_impl+0x6d2>
				len = strlen(bps);
 8000acc:	4638      	mov	r0, r7
 8000ace:	f001 fec9 	bl	8002864 <strlen>
 8000ad2:	e7c9      	b.n	8000a68 <z_cbvprintf_impl+0x570>
			buf[0] = CHAR_IS_SIGNED ? value->sint : value->uint;
 8000ad4:	9b0e      	ldr	r3, [sp, #56]	; 0x38
 8000ad6:	f88d 3020 	strb.w	r3, [sp, #32]
		char sign = 0;
 8000ada:	2600      	movs	r6, #0
			bps = buf;
 8000adc:	af08      	add	r7, sp, #32
			bpe = buf + 1;
 8000ade:	f10d 0a21 	add.w	sl, sp, #33	; 0x21
		size_t nj_len = (bpe - bps);
 8000ae2:	2001      	movs	r0, #1
 8000ae4:	e7c6      	b.n	8000a74 <z_cbvprintf_impl+0x57c>
			if (conv->flag_plus) {
 8000ae6:	0719      	lsls	r1, r3, #28
			} else if (conv->flag_space) {
 8000ae8:	bf5c      	itt	pl
 8000aea:	f3c3 1300 	ubfxpl	r3, r3, #4, #1
 8000aee:	015e      	lslpl	r6, r3, #5
			sint = value->sint;
 8000af0:	e9dd 230e 	ldrd	r2, r3, [sp, #56]	; 0x38
				sign = '+';
 8000af4:	bf48      	it	mi
 8000af6:	262b      	movmi	r6, #43	; 0x2b
			if (sint < 0) {
 8000af8:	2b00      	cmp	r3, #0
 8000afa:	f6bf af62 	bge.w	80009c2 <z_cbvprintf_impl+0x4ca>
				value->uint = (uint_value_type)-sint;
 8000afe:	4252      	negs	r2, r2
 8000b00:	eb63 0343 	sbc.w	r3, r3, r3, lsl #1
 8000b04:	e9cd 230e 	strd	r2, r3, [sp, #56]	; 0x38
				sign = '-';
 8000b08:	262d      	movs	r6, #45	; 0x2d
 8000b0a:	e75a      	b.n	80009c2 <z_cbvprintf_impl+0x4ca>
		switch (conv->specifier) {
 8000b0c:	2600      	movs	r6, #0
 8000b0e:	e758      	b.n	80009c2 <z_cbvprintf_impl+0x4ca>
		char sign = 0;
 8000b10:	2600      	movs	r6, #0
				conv->flag_zero = false;
 8000b12:	f89d 2040 	ldrb.w	r2, [sp, #64]	; 0x40
				size_t len = bpe - bps;
 8000b16:	f10d 0336 	add.w	r3, sp, #54	; 0x36
 8000b1a:	1bdb      	subs	r3, r3, r7
				conv->flag_zero = false;
 8000b1c:	f36f 1286 	bfc	r2, #6, #1
				if (len < (size_t)precision) {
 8000b20:	459a      	cmp	sl, r3
				conv->flag_zero = false;
 8000b22:	f88d 2040 	strb.w	r2, [sp, #64]	; 0x40
				if (len < (size_t)precision) {
 8000b26:	f67f af5a 	bls.w	80009de <z_cbvprintf_impl+0x4e6>
					conv->pad0_value = precision - (int)len;
 8000b2a:	ebaa 0303 	sub.w	r3, sl, r3
 8000b2e:	9311      	str	r3, [sp, #68]	; 0x44
 8000b30:	e755      	b.n	80009de <z_cbvprintf_impl+0x4e6>
			if (value->ptr != NULL) {
 8000b32:	980e      	ldr	r0, [sp, #56]	; 0x38
 8000b34:	b390      	cbz	r0, 8000b9c <z_cbvprintf_impl+0x6a4>
				bps = encode_uint((uintptr_t)value->ptr, conv,
 8000b36:	f10d 0336 	add.w	r3, sp, #54	; 0x36
 8000b3a:	9300      	str	r3, [sp, #0]
 8000b3c:	aa10      	add	r2, sp, #64	; 0x40
 8000b3e:	ab08      	add	r3, sp, #32
 8000b40:	2100      	movs	r1, #0
 8000b42:	f001 fe1e 	bl	8002782 <encode_uint>
				conv->altform_0c = true;
 8000b46:	f8bd 3042 	ldrh.w	r3, [sp, #66]	; 0x42
 8000b4a:	f003 03ef 	and.w	r3, r3, #239	; 0xef
 8000b4e:	f443 43f0 	orr.w	r3, r3, #30720	; 0x7800
 8000b52:	f043 0310 	orr.w	r3, r3, #16
			if (precision >= 0) {
 8000b56:	f1ba 0f00 	cmp.w	sl, #0
				bps = encode_uint((uintptr_t)value->ptr, conv,
 8000b5a:	4607      	mov	r7, r0
				conv->altform_0c = true;
 8000b5c:	f8ad 3042 	strh.w	r3, [sp, #66]	; 0x42
			if (precision >= 0) {
 8000b60:	dad6      	bge.n	8000b10 <z_cbvprintf_impl+0x618>
		if (bps == NULL) {
 8000b62:	2800      	cmp	r0, #0
 8000b64:	f43f aedb 	beq.w	800091e <z_cbvprintf_impl+0x426>
		size_t nj_len = (bpe - bps);
 8000b68:	f10d 0336 	add.w	r3, sp, #54	; 0x36
 8000b6c:	1a18      	subs	r0, r3, r0
		char sign = 0;
 8000b6e:	2600      	movs	r6, #0
 8000b70:	469a      	mov	sl, r3
 8000b72:	e77f      	b.n	8000a74 <z_cbvprintf_impl+0x57c>
				store_count(conv, value->ptr, count);
 8000b74:	9b0e      	ldr	r3, [sp, #56]	; 0x38
	switch ((enum length_mod_enum)conv->length_mod) {
 8000b76:	2907      	cmp	r1, #7
 8000b78:	f63f aed1 	bhi.w	800091e <z_cbvprintf_impl+0x426>
 8000b7c:	e8df f001 	tbb	[pc, r1]
 8000b80:	0c06040c 	.word	0x0c06040c
 8000b84:	0c0c0808 	.word	0x0c0c0808
		*(signed char *)dp = (signed char)count;
 8000b88:	701d      	strb	r5, [r3, #0]
		if (bps == NULL) {
 8000b8a:	e6c8      	b.n	800091e <z_cbvprintf_impl+0x426>
		*(short *)dp = (short)count;
 8000b8c:	801d      	strh	r5, [r3, #0]
		if (bps == NULL) {
 8000b8e:	e6c6      	b.n	800091e <z_cbvprintf_impl+0x426>
		*(intmax_t *)dp = (intmax_t)count;
 8000b90:	17ea      	asrs	r2, r5, #31
 8000b92:	e9c3 5200 	strd	r5, r2, [r3]
		if (bps == NULL) {
 8000b96:	e6c2      	b.n	800091e <z_cbvprintf_impl+0x426>
		*(ptrdiff_t *)dp = (ptrdiff_t)count;
 8000b98:	601d      	str	r5, [r3, #0]
		if (bps == NULL) {
 8000b9a:	e6c0      	b.n	800091e <z_cbvprintf_impl+0x426>
 8000b9c:	4f2e      	ldr	r7, [pc, #184]	; (8000c58 <z_cbvprintf_impl+0x760>)
		char sign = 0;
 8000b9e:	4606      	mov	r6, r0
			bpe = bps + 5;
 8000ba0:	f107 0a05 	add.w	sl, r7, #5
		size_t nj_len = (bpe - bps);
 8000ba4:	2005      	movs	r0, #5
 8000ba6:	e765      	b.n	8000a74 <z_cbvprintf_impl+0x57c>
		} else if (conv->altform_0) {
 8000ba8:	071a      	lsls	r2, r3, #28
			nj_len += 1U;
 8000baa:	bf48      	it	mi
 8000bac:	3001      	addmi	r0, #1
 8000bae:	e769      	b.n	8000a84 <z_cbvprintf_impl+0x58c>
 8000bb0:	9307      	str	r3, [sp, #28]
					OUTC(pad);
 8000bb2:	4610      	mov	r0, r2
 8000bb4:	9206      	str	r2, [sp, #24]
 8000bb6:	4659      	mov	r1, fp
 8000bb8:	47c8      	blx	r9
 8000bba:	2800      	cmp	r0, #0
 8000bbc:	e9dd 2306 	ldrd	r2, r3, [sp, #24]
 8000bc0:	da04      	bge.n	8000bcc <z_cbvprintf_impl+0x6d4>
#undef OUTS
#undef OUTC
}
 8000bc2:	b015      	add	sp, #84	; 0x54
 8000bc4:	e8bd 8ff0 	ldmia.w	sp!, {r4, r5, r6, r7, r8, r9, sl, fp, pc}
				char pad = ' ';
 8000bc8:	2220      	movs	r2, #32
					pad = '0';
 8000bca:	4643      	mov	r3, r8
				while (width-- > 0) {
 8000bcc:	4619      	mov	r1, r3
 8000bce:	2900      	cmp	r1, #0
 8000bd0:	f103 33ff 	add.w	r3, r3, #4294967295
 8000bd4:	dcec      	bgt.n	8000bb0 <z_cbvprintf_impl+0x6b8>
 8000bd6:	4445      	add	r5, r8
 8000bd8:	1a6d      	subs	r5, r5, r1
 8000bda:	4698      	mov	r8, r3
		if (sign != 0) {
 8000bdc:	b12e      	cbz	r6, 8000bea <z_cbvprintf_impl+0x6f2>
			OUTC(sign);
 8000bde:	4659      	mov	r1, fp
 8000be0:	4630      	mov	r0, r6
 8000be2:	47c8      	blx	r9
 8000be4:	2800      	cmp	r0, #0
 8000be6:	dbec      	blt.n	8000bc2 <z_cbvprintf_impl+0x6ca>
 8000be8:	3501      	adds	r5, #1
			if (conv->altform_0c | conv->altform_0) {
 8000bea:	f89d 3042 	ldrb.w	r3, [sp, #66]	; 0x42
 8000bee:	06da      	lsls	r2, r3, #27
 8000bf0:	d401      	bmi.n	8000bf6 <z_cbvprintf_impl+0x6fe>
 8000bf2:	071b      	lsls	r3, r3, #28
 8000bf4:	d505      	bpl.n	8000c02 <z_cbvprintf_impl+0x70a>
				OUTC('0');
 8000bf6:	4659      	mov	r1, fp
 8000bf8:	2030      	movs	r0, #48	; 0x30
 8000bfa:	47c8      	blx	r9
 8000bfc:	2800      	cmp	r0, #0
 8000bfe:	dbe0      	blt.n	8000bc2 <z_cbvprintf_impl+0x6ca>
 8000c00:	3501      	adds	r5, #1
			if (conv->altform_0c) {
 8000c02:	9b05      	ldr	r3, [sp, #20]
 8000c04:	b133      	cbz	r3, 8000c14 <z_cbvprintf_impl+0x71c>
				OUTC(conv->specifier);
 8000c06:	f89d 0043 	ldrb.w	r0, [sp, #67]	; 0x43
 8000c0a:	4659      	mov	r1, fp
 8000c0c:	47c8      	blx	r9
 8000c0e:	2800      	cmp	r0, #0
 8000c10:	dbd7      	blt.n	8000bc2 <z_cbvprintf_impl+0x6ca>
 8000c12:	3501      	adds	r5, #1
			while (pad_len-- > 0) {
 8000c14:	9e04      	ldr	r6, [sp, #16]
 8000c16:	442e      	add	r6, r5
 8000c18:	e005      	b.n	8000c26 <z_cbvprintf_impl+0x72e>
				OUTC('0');
 8000c1a:	4659      	mov	r1, fp
 8000c1c:	2030      	movs	r0, #48	; 0x30
 8000c1e:	47c8      	blx	r9
 8000c20:	2800      	cmp	r0, #0
 8000c22:	dbce      	blt.n	8000bc2 <z_cbvprintf_impl+0x6ca>
 8000c24:	3501      	adds	r5, #1
			while (pad_len-- > 0) {
 8000c26:	1b73      	subs	r3, r6, r5
 8000c28:	2b00      	cmp	r3, #0
 8000c2a:	dcf6      	bgt.n	8000c1a <z_cbvprintf_impl+0x722>
			OUTS(bps, bpe);
 8000c2c:	4653      	mov	r3, sl
 8000c2e:	463a      	mov	r2, r7
 8000c30:	4659      	mov	r1, fp
 8000c32:	4648      	mov	r0, r9
 8000c34:	f001 fdeb 	bl	800280e <outs>
 8000c38:	2800      	cmp	r0, #0
 8000c3a:	dbc2      	blt.n	8000bc2 <z_cbvprintf_impl+0x6ca>
 8000c3c:	4405      	add	r5, r0
		while (width > 0) {
 8000c3e:	44a8      	add	r8, r5
 8000c40:	eba8 0305 	sub.w	r3, r8, r5
 8000c44:	2b00      	cmp	r3, #0
 8000c46:	f77f ae6a 	ble.w	800091e <z_cbvprintf_impl+0x426>
			OUTC(' ');
 8000c4a:	4659      	mov	r1, fp
 8000c4c:	2020      	movs	r0, #32
 8000c4e:	47c8      	blx	r9
 8000c50:	2800      	cmp	r0, #0
 8000c52:	dbb6      	blt.n	8000bc2 <z_cbvprintf_impl+0x6ca>
 8000c54:	3501      	adds	r5, #1
			--width;
 8000c56:	e7f3      	b.n	8000c40 <z_cbvprintf_impl+0x748>
 8000c58:	080034de 	.word	0x080034de

08000c5c <stm32l4_init>:
		:
		: "memory");
#elif defined(CONFIG_ARMV7_M_ARMV8_M_MAINLINE)
	unsigned int tmp;

	__asm__ volatile(
 8000c5c:	f04f 0210 	mov.w	r2, #16
 8000c60:	f3ef 8311 	mrs	r3, BASEPRI
 8000c64:	f382 8812 	msr	BASEPRI_MAX, r2
 8000c68:	f3bf 8f6f 	isb	sy
	__asm__ volatile(
		"cpsie i;"
		"isb"
		: : : "memory");
#elif defined(CONFIG_ARMV7_M_ARMV8_M_MAINLINE)
	__asm__ volatile(
 8000c6c:	f383 8811 	msr	BASEPRI, r3
 8000c70:	f3bf 8f6f 	isb	sy

	irq_unlock(key);

	/* Update CMSIS SystemCoreClock variable (HCLK) */
	/* At reset, system core clock is set to 4 MHz from MSI */
	SystemCoreClock = 4000000;
 8000c74:	4b02      	ldr	r3, [pc, #8]	; (8000c80 <stm32l4_init+0x24>)
 8000c76:	4a03      	ldr	r2, [pc, #12]	; (8000c84 <stm32l4_init+0x28>)
 8000c78:	601a      	str	r2, [r3, #0]

	return 0;
}
 8000c7a:	2000      	movs	r0, #0
 8000c7c:	4770      	bx	lr
 8000c7e:	bf00      	nop
 8000c80:	2000002c 	.word	0x2000002c
 8000c84:	003d0900 	.word	0x003d0900

08000c88 <z_arm_cpu_idle_init>:
 * void z_arm_cpu_idle_init(void);
 */

SECTION_FUNC(TEXT, z_arm_cpu_idle_init)
#if defined(CONFIG_CPU_CORTEX_M)
	ldr	r1, =_SCB_SCR
 8000c88:	4901      	ldr	r1, [pc, #4]	; (8000c90 <z_arm_cpu_idle_init+0x8>)
	movs.n	r2, #_SCR_INIT_BITS
 8000c8a:	2210      	movs	r2, #16
	str	r2, [r1]
 8000c8c:	600a      	str	r2, [r1, #0]
#endif
	bx	lr
 8000c8e:	4770      	bx	lr
	ldr	r1, =_SCB_SCR
 8000c90:	e000ed10 	.word	0xe000ed10

08000c94 <arch_cpu_idle>:
	 * before entering low power state.
	 *
	 * Set PRIMASK before configuring BASEPRI to prevent interruption
	 * before wake-up.
	 */
	cpsid	i
 8000c94:	b672      	cpsid	i

	/*
	 * Set wake-up interrupt priority to the lowest and synchronise to
	 * ensure that this is visible to the WFI instruction.
	 */
	eors.n	r0, r0
 8000c96:	4040      	eors	r0, r0
	msr	BASEPRI, r0
 8000c98:	f380 8811 	msr	BASEPRI, r0
	isb
 8000c9c:	f3bf 8f6f 	isb	sy

	/*
	 * Wait for all memory transactions to complete before entering low
	 * power state.
	 */
	dsb
 8000ca0:	f3bf 8f4f 	dsb	sy

	/* Enter low power state */
	wfi
 8000ca4:	bf30      	wfi

	/*
	 * Clear PRIMASK and flush instruction buffer to immediately service
	 * the wake-up interrupt.
	 */
	cpsie	i
 8000ca6:	b662      	cpsie	i
	isb
 8000ca8:	f3bf 8f6f 	isb	sy

	bx	lr
 8000cac:	4770      	bx	lr
 8000cae:	bf00      	nop

08000cb0 <arch_irq_enable>:
#define REG_FROM_IRQ(irq) (irq / NUM_IRQS_PER_REG)
#define BIT_FROM_IRQ(irq) (irq % NUM_IRQS_PER_REG)

void arch_irq_enable(unsigned int irq)
{
	NVIC_EnableIRQ((IRQn_Type)irq);
 8000cb0:	b240      	sxtb	r0, r0
  \param [in]      IRQn  Device specific interrupt number.
  \note    IRQn must not be negative.
 */
__STATIC_INLINE void __NVIC_EnableIRQ(IRQn_Type IRQn)
{
  if ((int32_t)(IRQn) >= 0)
 8000cb2:	2800      	cmp	r0, #0
 8000cb4:	db07      	blt.n	8000cc6 <arch_irq_enable+0x16>
  {
    __COMPILER_BARRIER();
    NVIC->ISER[(((uint32_t)IRQn) >> 5UL)] = (uint32_t)(1UL << (((uint32_t)IRQn) & 0x1FUL));
 8000cb6:	4a04      	ldr	r2, [pc, #16]	; (8000cc8 <arch_irq_enable+0x18>)
 8000cb8:	0941      	lsrs	r1, r0, #5
 8000cba:	2301      	movs	r3, #1
 8000cbc:	f000 001f 	and.w	r0, r0, #31
 8000cc0:	4083      	lsls	r3, r0
 8000cc2:	f842 3021 	str.w	r3, [r2, r1, lsl #2]
}
 8000cc6:	4770      	bx	lr
 8000cc8:	e000e100 	.word	0xe000e100

08000ccc <z_arm_irq_priority_set>:
	 */
	__ASSERT(prio <= (BIT(NUM_IRQ_PRIO_BITS) - 1),
		 "invalid priority %d for %d irq! values must be less than %lu\n",
		 prio - _IRQ_PRIO_OFFSET, irq,
		 BIT(NUM_IRQ_PRIO_BITS) - (_IRQ_PRIO_OFFSET));
	NVIC_SetPriority((IRQn_Type)irq, prio);
 8000ccc:	b240      	sxtb	r0, r0
  \param [in]  priority  Priority to set.
  \note    The priority cannot be set for every processor exception.
 */
__STATIC_INLINE void __NVIC_SetPriority(IRQn_Type IRQn, uint32_t priority)
{
  if ((int32_t)(IRQn) >= 0)
 8000cce:	2800      	cmp	r0, #0
  {
    NVIC->IP[((uint32_t)IRQn)]               = (uint8_t)((priority << (8U - __NVIC_PRIO_BITS)) & (uint32_t)0xFFUL);
 8000cd0:	bfa8      	it	ge
 8000cd2:	f100 4060 	addge.w	r0, r0, #3758096384	; 0xe0000000
		prio += _IRQ_PRIO_OFFSET;
 8000cd6:	f101 0101 	add.w	r1, r1, #1
  }
  else
  {
    SCB->SHP[(((uint32_t)IRQn) & 0xFUL)-4UL] = (uint8_t)((priority << (8U - __NVIC_PRIO_BITS)) & (uint32_t)0xFFUL);
 8000cda:	bfb8      	it	lt
 8000cdc:	4b06      	ldrlt	r3, [pc, #24]	; (8000cf8 <z_arm_irq_priority_set+0x2c>)
    NVIC->IP[((uint32_t)IRQn)]               = (uint8_t)((priority << (8U - __NVIC_PRIO_BITS)) & (uint32_t)0xFFUL);
 8000cde:	ea4f 1101 	mov.w	r1, r1, lsl #4
 8000ce2:	bfac      	ite	ge
 8000ce4:	f500 4061 	addge.w	r0, r0, #57600	; 0xe100
    SCB->SHP[(((uint32_t)IRQn) & 0xFUL)-4UL] = (uint8_t)((priority << (8U - __NVIC_PRIO_BITS)) & (uint32_t)0xFFUL);
 8000ce8:	f000 000f 	andlt.w	r0, r0, #15
    NVIC->IP[((uint32_t)IRQn)]               = (uint8_t)((priority << (8U - __NVIC_PRIO_BITS)) & (uint32_t)0xFFUL);
 8000cec:	b2c9      	uxtb	r1, r1
    SCB->SHP[(((uint32_t)IRQn) & 0xFUL)-4UL] = (uint8_t)((priority << (8U - __NVIC_PRIO_BITS)) & (uint32_t)0xFFUL);
 8000cee:	bfb4      	ite	lt
 8000cf0:	5419      	strblt	r1, [r3, r0]
    NVIC->IP[((uint32_t)IRQn)]               = (uint8_t)((priority << (8U - __NVIC_PRIO_BITS)) & (uint32_t)0xFFUL);
 8000cf2:	f880 1300 	strbge.w	r1, [r0, #768]	; 0x300
}
 8000cf6:	4770      	bx	lr
 8000cf8:	e000ed14 	.word	0xe000ed14

08000cfc <z_SysNmiOnReset>:
_ASM_FILE_PROLOGUE

GTEXT(z_SysNmiOnReset)

SECTION_FUNC(TEXT, z_SysNmiOnReset)
    wfi
 8000cfc:	bf30      	wfi
    b z_SysNmiOnReset
 8000cfe:	f7ff bffd 	b.w	8000cfc <z_SysNmiOnReset>
 8000d02:	bf00      	nop

08000d04 <z_arm_prep_c>:

#define VECTOR_ADDRESS ((uintptr_t)_vector_start)

static inline void relocate_vector_table(void)
{
	SCB->VTOR = VECTOR_ADDRESS & SCB_VTOR_TBLOFF_Msk;
 8000d04:	4a0f      	ldr	r2, [pc, #60]	; (8000d44 <z_arm_prep_c+0x40>)
 *
 * This routine prepares for the execution of and runs C code.
 *
 */
void z_arm_prep_c(void)
{
 8000d06:	b508      	push	{r3, lr}
	SCB->VTOR = VECTOR_ADDRESS & SCB_VTOR_TBLOFF_Msk;
 8000d08:	4b0f      	ldr	r3, [pc, #60]	; (8000d48 <z_arm_prep_c+0x44>)
 8000d0a:	f022 027f 	bic.w	r2, r2, #127	; 0x7f
 8000d0e:	609a      	str	r2, [r3, #8]
  \details Acts as a special kind of Data Memory Barrier.
           It completes when all explicit memory accesses before this instruction complete.
 */
__STATIC_FORCEINLINE void __DSB(void)
{
  __ASM volatile ("dsb 0xF":::"memory");
 8000d10:	f3bf 8f4f 	dsb	sy
  __ASM volatile ("isb 0xF":::"memory");
 8000d14:	f3bf 8f6f 	isb	sy
	SCB->CPACR &= (~(CPACR_CP10_Msk | CPACR_CP11_Msk));
 8000d18:	f8d3 2088 	ldr.w	r2, [r3, #136]	; 0x88
 8000d1c:	f422 0270 	bic.w	r2, r2, #15728640	; 0xf00000
 8000d20:	f8c3 2088 	str.w	r2, [r3, #136]	; 0x88
 */
__STATIC_FORCEINLINE uint32_t __get_CONTROL(void)
{
  uint32_t result;

  __ASM volatile ("MRS %0, control" : "=r" (result) );
 8000d24:	f3ef 8314 	mrs	r3, CONTROL
	__set_CONTROL(__get_CONTROL() & (~(CONTROL_FPCA_Msk)));
 8000d28:	f023 0304 	bic.w	r3, r3, #4
  \details Writes the given value to the Control Register.
  \param [in]    control  Control Register value to set
 */
__STATIC_FORCEINLINE void __set_CONTROL(uint32_t control)
{
  __ASM volatile ("MSR control, %0" : : "r" (control) : "memory");
 8000d2c:	f383 8814 	msr	CONTROL, r3
  __ASM volatile ("isb 0xF":::"memory");
 8000d30:	f3bf 8f6f 	isb	sy
	relocate_vector_table();
#if defined(CONFIG_CPU_HAS_FPU)
	z_arm_floating_point_init();
#endif
	z_bss_zero();
 8000d34:	f001 f88c 	bl	8001e50 <z_bss_zero>
	z_data_copy();
 8000d38:	f001 fb8e 	bl	8002458 <z_data_copy>
#if ((defined(CONFIG_ARMV7_R) || defined(CONFIG_ARMV7_A)) && defined(CONFIG_INIT_STACKS))
	z_arm_init_stacks();
#endif
	z_arm_interrupt_init();
 8000d3c:	f000 f9ca 	bl	80010d4 <z_arm_interrupt_init>
	z_cstart();
 8000d40:	f001 f8ca 	bl	8001ed8 <z_cstart>
 8000d44:	08000000 	.word	0x08000000
 8000d48:	e000ed00 	.word	0xe000ed00

08000d4c <arch_swap>:
 * as BASEPRI is not available.
 */
int arch_swap(unsigned int key)
{
	/* store off key and return value */
	_current->arch.basepri = key;
 8000d4c:	4a09      	ldr	r2, [pc, #36]	; (8000d74 <arch_swap+0x28>)
	_current->arch.swap_return_value = _k_neg_eagain;
 8000d4e:	490a      	ldr	r1, [pc, #40]	; (8000d78 <arch_swap+0x2c>)
	_current->arch.basepri = key;
 8000d50:	6893      	ldr	r3, [r2, #8]
	_current->arch.swap_return_value = _k_neg_eagain;
 8000d52:	6809      	ldr	r1, [r1, #0]
 8000d54:	6799      	str	r1, [r3, #120]	; 0x78

#if defined(CONFIG_CPU_CORTEX_M)
	/* set pending bit to make sure we will take a PendSV exception */
	SCB->ICSR |= SCB_ICSR_PENDSVSET_Msk;
 8000d56:	4909      	ldr	r1, [pc, #36]	; (8000d7c <arch_swap+0x30>)
	_current->arch.basepri = key;
 8000d58:	6758      	str	r0, [r3, #116]	; 0x74
	SCB->ICSR |= SCB_ICSR_PENDSVSET_Msk;
 8000d5a:	684b      	ldr	r3, [r1, #4]
 8000d5c:	f043 5380 	orr.w	r3, r3, #268435456	; 0x10000000
 8000d60:	604b      	str	r3, [r1, #4]
 8000d62:	2300      	movs	r3, #0
 8000d64:	f383 8811 	msr	BASEPRI, r3
 8000d68:	f3bf 8f6f 	isb	sy
#endif

	/* Context switch is performed here. Returning implies the
	 * thread has been context-switched-in again.
	 */
	return _current->arch.swap_return_value;
 8000d6c:	6893      	ldr	r3, [r2, #8]
}
 8000d6e:	6f98      	ldr	r0, [r3, #120]	; 0x78
 8000d70:	4770      	bx	lr
 8000d72:	bf00      	nop
 8000d74:	2000023c 	.word	0x2000023c
 8000d78:	080034d4 	.word	0x080034d4
 8000d7c:	e000ed00 	.word	0xe000ed00

08000d80 <z_arm_pendsv>:
    pop {r0, lr}
#endif /* CONFIG_ARMV6_M_ARMV8_M_BASELINE */
#endif /* CONFIG_INSTRUMENT_THREAD_SWITCHING */

    /* load _kernel into r1 and current k_thread into r2 */
    ldr r1, =_kernel
 8000d80:	4912      	ldr	r1, [pc, #72]	; (8000dcc <z_arm_pendsv+0x4c>)
    ldr r2, [r1, #_kernel_offset_to_current]
 8000d82:	688a      	ldr	r2, [r1, #8]
    /* Store LSB of LR (EXC_RETURN) to the thread's 'mode' word. */
    strb lr, [r2, #_thread_offset_to_mode_exc_return]
#endif

    /* addr of callee-saved regs in thread in r0 */
    ldr r0, =_thread_offset_to_callee_saved
 8000d84:	f04f 0030 	mov.w	r0, #48	; 0x30
    add r0, r2
 8000d88:	4410      	add	r0, r2

    /* save callee-saved + psp in thread */
#if defined(CONFIG_CPU_CORTEX_M)
    mrs ip, PSP
 8000d8a:	f3ef 8c09 	mrs	ip, PSP
    mov r6, r11
    mov r7, ip
    /* store r8-12 */
    stmea r0!, {r3-r7}
#elif defined(CONFIG_ARMV7_M_ARMV8_M_MAINLINE)
    stmia r0, {v1-v8, ip}
 8000d8e:	e880 1ff0 	stmia.w	r0, {r4, r5, r6, r7, r8, r9, sl, fp, ip}

    /* Protect the kernel state while we play with the thread lists */
#if defined(CONFIG_ARMV6_M_ARMV8_M_BASELINE)
    cpsid i
#elif defined(CONFIG_ARMV7_M_ARMV8_M_MAINLINE)
    movs.n r0, #_EXC_IRQ_DEFAULT_PRIO
 8000d92:	2010      	movs	r0, #16
    msr BASEPRI_MAX, r0
 8000d94:	f380 8812 	msr	BASEPRI_MAX, r0
    isb /* Make the effect of disabling interrupts be realized immediately */
 8000d98:	f3bf 8f6f 	isb	sy
     * the new thread is context-switched in since all decisions
     * to pend PendSV have been taken with the current kernel
     * state and this is what we're handling currently.
     */
#if defined(CONFIG_CPU_CORTEX_M)
    ldr v4, =_SCS_ICSR
 8000d9c:	4f0c      	ldr	r7, [pc, #48]	; (8000dd0 <z_arm_pendsv+0x50>)
    ldr v3, =_SCS_ICSR_UNPENDSV
 8000d9e:	f04f 6600 	mov.w	r6, #134217728	; 0x8000000
#endif

    /* _kernel is still in r1 */

    /* fetch the thread to run from the ready queue cache */
    ldr r2, [r1, #_kernel_offset_to_ready_q_cache]
 8000da2:	698a      	ldr	r2, [r1, #24]

    str r2, [r1, #_kernel_offset_to_current]
 8000da4:	608a      	str	r2, [r1, #8]
     * has been handled.
     */

    /* _SCS_ICSR is still in v4 and _SCS_ICSR_UNPENDSV in v3 */
#if defined(CONFIG_CPU_CORTEX_M)
    str v3, [v4, #0]
 8000da6:	603e      	str	r6, [r7, #0]

    ldr r0, [r4]
    movs.n r3, #0
    str r3, [r4]
#else
    ldr r0, [r2, #_thread_offset_to_basepri]
 8000da8:	6f50      	ldr	r0, [r2, #116]	; 0x74
    movs r3, #0
 8000daa:	2300      	movs	r3, #0
    str r3, [r2, #_thread_offset_to_basepri]
 8000dac:	6753      	str	r3, [r2, #116]	; 0x74
    /* restore r4-r7, go back 9*4 bytes to the start of the stored block */
    subs r0, #36
    ldmia r0!, {r4-r7}
#elif defined(CONFIG_ARMV7_M_ARMV8_M_MAINLINE)
    /* restore BASEPRI for the incoming thread */
    msr BASEPRI, r0
 8000dae:	f380 8811 	msr	BASEPRI, r0
    isb
#endif

#if defined(CONFIG_MPU_STACK_GUARD) || defined(CONFIG_USERSPACE)
    /* Re-program dynamic memory map */
    push {r2,lr}
 8000db2:	b504      	push	{r2, lr}
    mov r0, r2 /* _current thread */
 8000db4:	4610      	mov	r0, r2
    bl z_arm_configure_dynamic_mpu_regions
 8000db6:	f000 f9d1 	bl	800115c <z_arm_configure_dynamic_mpu_regions>
    pop {r2,lr}
 8000dba:	e8bd 4004 	ldmia.w	sp!, {r2, lr}
    isb

#endif

    /* load callee-saved + psp from thread */
    add r0, r2, #_thread_offset_to_callee_saved
 8000dbe:	f102 0030 	add.w	r0, r2, #48	; 0x30
    ldmia r0, {v1-v8, ip}
 8000dc2:	e890 1ff0 	ldmia.w	r0, {r4, r5, r6, r7, r8, r9, sl, fp, ip}
#else
#error Unknown ARM architecture
#endif /* CONFIG_ARMV6_M_ARMV8_M_BASELINE */

#if defined(CONFIG_CPU_CORTEX_M)
    msr PSP, ip
 8000dc6:	f38c 8809 	msr	PSP, ip

    /*
     * Cortex-M: return from PendSV exception
     * Cortex-R: return to the caller (z_arm_{exc,int}_exit, or z_arm_svc)
     */
    bx lr
 8000dca:	4770      	bx	lr
    ldr r1, =_kernel
 8000dcc:	2000023c 	.word	0x2000023c
    ldr v4, =_SCS_ICSR
 8000dd0:	e000ed04 	.word	0xe000ed04

08000dd4 <z_arm_svc>:
  bne _stack_frame_endif
_stack_frame_msp:
  mrs r0, MSP
_stack_frame_endif:
#elif defined(CONFIG_ARMV7_M_ARMV8_M_MAINLINE)
    tst lr, #_EXC_RETURN_SPSEL_Msk /* did we come from thread mode ? */
 8000dd4:	f01e 0f04 	tst.w	lr, #4
    ite eq  /* if zero (equal), came from handler mode */
 8000dd8:	bf0c      	ite	eq
        mrseq r0, MSP   /* handler mode, stack frame is on MSP */
 8000dda:	f3ef 8008 	mrseq	r0, MSP
        mrsne r0, PSP   /* thread mode, stack frame is on PSP */
 8000dde:	f3ef 8009 	mrsne	r0, PSP
#endif


    /* Figure out what SVC call number was invoked */

    ldr r1, [r0, #24]   /* grab address of PC from stack frame */
 8000de2:	6981      	ldr	r1, [r0, #24]
     */
#if defined(CONFIG_ARMV6_M_ARMV8_M_BASELINE)
    subs r1, r1, #2
    ldrb r1, [r1]
#elif defined(CONFIG_ARMV7_M_ARMV8_M_MAINLINE)
    ldrb r1, [r1, #-2]
 8000de4:	f811 1c02 	ldrb.w	r1, [r1, #-2]
#endif
    bne _oops

#endif /* CONFIG_USERSPACE */

    cmp r1, #2
 8000de8:	2902      	cmp	r1, #2
    beq _oops
 8000dea:	d0ff      	beq.n	8000dec <_oops>

08000dec <_oops>:
    /* exception return is done in z_arm_int_exit() */
    b z_arm_int_exit
#endif

_oops:
    push {r0, lr}
 8000dec:	b501      	push	{r0, lr}
    push {r1, r2}
    push {r4-r11}
    mov  r1, sp /* pointer to _callee_saved_t */
#endif /* CONFIG_ARMV7_M_ARMV8_M_MAINLINE */
#endif /* CONFIG_EXTRA_EXCEPTION_INFO */
    bl z_do_kernel_oops
 8000dee:	f001 fd2a 	bl	8002846 <z_do_kernel_oops>
     * the MSP to its value prior to entering the function
     */
    add sp, #40
#endif /* CONFIG_ARMV7_M_ARMV8_M_MAINLINE */
#endif /* CONFIG_EXTRA_EXCEPTION_INFO */
    pop {r0, pc}
 8000df2:	bd01      	pop	{r0, pc}

08000df4 <arch_new_thread>:

#if defined(CONFIG_CPU_CORTEX_M)
	/* force ARM mode by clearing LSB of address */
	iframe->pc &= 0xfffffffe;
#endif
	iframe->a1 = (uint32_t)entry;
 8000df4:	f842 3c20 	str.w	r3, [r2, #-32]
	iframe->a2 = (uint32_t)p1;
 8000df8:	9b00      	ldr	r3, [sp, #0]
 8000dfa:	f842 3c1c 	str.w	r3, [r2, #-28]
	iframe->pc &= 0xfffffffe;
 8000dfe:	490a      	ldr	r1, [pc, #40]	; (8000e28 <arch_new_thread+0x34>)
	iframe->a3 = (uint32_t)p2;
 8000e00:	9b01      	ldr	r3, [sp, #4]
 8000e02:	f842 3c18 	str.w	r3, [r2, #-24]
	iframe->a4 = (uint32_t)p3;
 8000e06:	9b02      	ldr	r3, [sp, #8]
 8000e08:	f842 3c14 	str.w	r3, [r2, #-20]
	iframe->pc &= 0xfffffffe;
 8000e0c:	f021 0101 	bic.w	r1, r1, #1

#if defined(CONFIG_CPU_CORTEX_M)
	iframe->xpsr =
 8000e10:	f04f 7380 	mov.w	r3, #16777216	; 0x1000000
 8000e14:	f842 3c04 	str.w	r3, [r2, #-4]
	iframe->pc &= 0xfffffffe;
 8000e18:	f842 1c08 	str.w	r1, [r2, #-8]
		((uintptr_t)iframe - sizeof(struct __fpu_sf));
	memset(iframe, 0, sizeof(struct __fpu_sf));
#endif

	thread->callee_saved.psp = (uint32_t)iframe;
	thread->arch.basepri = 0;
 8000e1c:	2300      	movs	r3, #0
	iframe = Z_STACK_PTR_TO_FRAME(struct __basic_sf, stack_ptr);
 8000e1e:	3a20      	subs	r2, #32
	thread->callee_saved.psp = (uint32_t)iframe;
 8000e20:	6502      	str	r2, [r0, #80]	; 0x50
	thread->arch.basepri = 0;
 8000e22:	6743      	str	r3, [r0, #116]	; 0x74
#endif
	/*
	 * initial values in all other registers/thread entries are
	 * irrelevant.
	 */
}
 8000e24:	4770      	bx	lr
 8000e26:	bf00      	nop
 8000e28:	0800276f 	.word	0x0800276f

08000e2c <z_check_thread_stack_fail>:
 *         thread stack corruption, otherwise return 0.
 */
uint32_t z_check_thread_stack_fail(const uint32_t fault_addr, const uint32_t psp)
{
#if defined(CONFIG_MULTITHREADING)
	const struct k_thread *thread = _current;
 8000e2c:	4a09      	ldr	r2, [pc, #36]	; (8000e54 <z_check_thread_stack_fail+0x28>)
{
 8000e2e:	4603      	mov	r3, r0
	const struct k_thread *thread = _current;
 8000e30:	6890      	ldr	r0, [r2, #8]

	if (thread == NULL) {
 8000e32:	b170      	cbz	r0, 8000e52 <z_check_thread_stack_fail+0x26>
			return thread->stack_info.start;
		}
	}
#else /* CONFIG_USERSPACE */
#if defined(CONFIG_MULTITHREADING)
	if (IS_MPU_GUARD_VIOLATION(thread->stack_info.start - guard_len,
 8000e34:	f113 0f16 	cmn.w	r3, #22
 8000e38:	6e40      	ldr	r0, [r0, #100]	; 0x64
 8000e3a:	d005      	beq.n	8000e48 <z_check_thread_stack_fail+0x1c>
 8000e3c:	f1a0 0240 	sub.w	r2, r0, #64	; 0x40
 8000e40:	429a      	cmp	r2, r3
 8000e42:	d805      	bhi.n	8000e50 <z_check_thread_stack_fail+0x24>
 8000e44:	4283      	cmp	r3, r0
 8000e46:	d203      	bcs.n	8000e50 <z_check_thread_stack_fail+0x24>
		return 0;
 8000e48:	4281      	cmp	r1, r0
 8000e4a:	bf28      	it	cs
 8000e4c:	2000      	movcs	r0, #0
 8000e4e:	4770      	bx	lr
 8000e50:	2000      	movs	r0, #0
	}
#endif
#endif /* CONFIG_USERSPACE */

	return 0;
}
 8000e52:	4770      	bx	lr
 8000e54:	2000023c 	.word	0x2000023c

08000e58 <arch_switch_to_main_thread>:
#endif /* CONFIG_FPU */
}

void arch_switch_to_main_thread(struct k_thread *main_thread, char *stack_ptr,
				k_thread_entry_t _main)
{
 8000e58:	b508      	push	{r3, lr}
	z_arm_prepare_switch_to_main();

	_current = main_thread;
 8000e5a:	4b09      	ldr	r3, [pc, #36]	; (8000e80 <arch_switch_to_main_thread+0x28>)
 8000e5c:	6098      	str	r0, [r3, #8]
{
 8000e5e:	460d      	mov	r5, r1
 8000e60:	4614      	mov	r4, r2
#if defined(CONFIG_MPU_STACK_GUARD) || defined(CONFIG_USERSPACE)
	/*
	 * If stack protection is enabled, make sure to set it
	 * before jumping to thread entry function
	 */
	z_arm_configure_dynamic_mpu_regions(main_thread);
 8000e62:	f000 f97b 	bl	800115c <z_arm_configure_dynamic_mpu_regions>

	/*
	 * Set PSP to the highest address of the main stack
	 * before enabling interrupts and jumping to main.
	 */
	__asm__ volatile (
 8000e66:	4620      	mov	r0, r4
 8000e68:	f385 8809 	msr	PSP, r5
 8000e6c:	2100      	movs	r1, #0
 8000e6e:	b663      	cpsie	if
 8000e70:	f381 8811 	msr	BASEPRI, r1
 8000e74:	f3bf 8f6f 	isb	sy
 8000e78:	2200      	movs	r2, #0
 8000e7a:	2300      	movs	r3, #0
 8000e7c:	f001 fc77 	bl	800276e <z_thread_entry>
	:
	: "r" (_main), "r" (stack_ptr)
	: "r0" /* not to be overwritten by msr PSP, %1 */
	);

	CODE_UNREACHABLE;
 8000e80:	2000023c 	.word	0x2000023c

08000e84 <_isr_wrapper>:
 *
 */
SECTION_FUNC(TEXT, _isr_wrapper)

#if defined(CONFIG_CPU_CORTEX_M)
	push {r0,lr}		/* r0, lr are now the first items on the stack */
 8000e84:	b501      	push	{r0, lr}
#endif

#endif /* CONFIG_PM */

#if defined(CONFIG_CPU_CORTEX_M)
	mrs r0, IPSR	/* get exception number */
 8000e86:	f3ef 8005 	mrs	r0, IPSR
#if defined(CONFIG_ARMV6_M_ARMV8_M_BASELINE)
	ldr r1, =16
	subs r0, r1	/* get IRQ number */
	lsls r0, #3	/* table is 8-byte wide */
#elif defined(CONFIG_ARMV7_M_ARMV8_M_MAINLINE)
	sub r0, r0, #16	/* get IRQ number */
 8000e8a:	f1a0 0010 	sub.w	r0, r0, #16
	lsl r0, r0, #3	/* table is 8-byte wide */
 8000e8e:	ea4f 00c0 	mov.w	r0, r0, lsl #3
	lsl r1, r1, #3
	cmp r0, r1
	bge spurious_continue
#endif /* !CONFIG_CPU_CORTEX_M */

	ldr r1, =_sw_isr_table
 8000e92:	4904      	ldr	r1, [pc, #16]	; (8000ea4 <_isr_wrapper+0x20>)
	add r1, r1, r0	/* table entry: ISRs must have their MSB set to stay
 8000e94:	4401      	add	r1, r0
			 * in thumb mode */

	ldm r1!,{r0,r3}	/* arg in r0, ISR in r3 */
 8000e96:	c909      	ldmia	r1!, {r0, r3}
	blx r3		/* call ISR */
 8000e98:	4798      	blx	r3

#if defined(CONFIG_ARMV6_M_ARMV8_M_BASELINE)
	pop {r0, r3}
	mov lr, r3
#elif defined(CONFIG_ARMV7_M_ARMV8_M_MAINLINE)
	pop {r0, lr}
 8000e9a:	e8bd 4001 	ldmia.w	sp!, {r0, lr}
#endif /* CONFIG_ARMV6_M_ARMV8_M_BASELINE */

	/* Use 'bx' instead of 'b' because 'bx' can jump further, and use
	 * 'bx' instead of 'blx' because exception return is done in
	 * z_arm_int_exit() */
	ldr r1, =z_arm_int_exit
 8000e9e:	4902      	ldr	r1, [pc, #8]	; (8000ea8 <_isr_wrapper+0x24>)
	bx r1
 8000ea0:	4708      	bx	r1
 8000ea2:	0000      	.short	0x0000
	ldr r1, =_sw_isr_table
 8000ea4:	0800307c 	.word	0x0800307c
	ldr r1, =z_arm_int_exit
 8000ea8:	08000ead 	.word	0x08000ead

08000eac <z_arm_exc_exit>:
 */

SECTION_SUBSEC_FUNC(TEXT, _HandlerModeExit, z_arm_exc_exit)

#ifdef CONFIG_PREEMPT_ENABLED
	ldr r3, =_kernel
 8000eac:	4b04      	ldr	r3, [pc, #16]	; (8000ec0 <_EXIT_EXC+0x2>)

	ldr r1, [r3, #_kernel_offset_to_current]
 8000eae:	6899      	ldr	r1, [r3, #8]
	ldr r0, [r3, #_kernel_offset_to_ready_q_cache]
 8000eb0:	6998      	ldr	r0, [r3, #24]
	cmp r0, r1
 8000eb2:	4288      	cmp	r0, r1
	beq _EXIT_EXC
 8000eb4:	d003      	beq.n	8000ebe <_EXIT_EXC>

	/* context switch required, pend the PendSV exception */
	ldr r1, =_SCS_ICSR
 8000eb6:	4903      	ldr	r1, [pc, #12]	; (8000ec4 <_EXIT_EXC+0x6>)
	ldr r2, =_SCS_ICSR_PENDSV
 8000eb8:	f04f 5280 	mov.w	r2, #268435456	; 0x10000000
	str r2, [r1]
 8000ebc:	600a      	str	r2, [r1, #0]

08000ebe <_EXIT_EXC>:
#else
	pop {r0, lr}
#endif /* CONFIG_ARMV6_M_ARMV8_M_BASELINE */
#endif /* CONFIG_STACK_SENTINEL */

	bx lr
 8000ebe:	4770      	bx	lr
	ldr r3, =_kernel
 8000ec0:	2000023c 	.word	0x2000023c
	ldr r1, =_SCS_ICSR
 8000ec4:	e000ed04 	.word	0xe000ed04

08000ec8 <mem_manage_fault>:
 *
 * @return error code to identify the fatal error reason
 */
static uint32_t mem_manage_fault(z_arch_esf_t *esf, int from_hard_fault,
			      bool *recoverable)
{
 8000ec8:	b570      	push	{r4, r5, r6, lr}
	uint32_t reason = K_ERR_CPU_EXCEPTION;
	uint32_t mmfar = -EINVAL;

	PR_FAULT_INFO("***** MPU FAULT *****");

	if ((SCB->CFSR & SCB_CFSR_MSTKERR_Msk) != 0) {
 8000eca:	4b1d      	ldr	r3, [pc, #116]	; (8000f40 <mem_manage_fault+0x78>)
{
 8000ecc:	4615      	mov	r5, r2
	if ((SCB->CFSR & SCB_CFSR_MSTKERR_Msk) != 0) {
 8000ece:	6a9a      	ldr	r2, [r3, #40]	; 0x28
		PR_FAULT_INFO("  Stacking error (context area might be"
			" not valid)");
	}
	if ((SCB->CFSR & SCB_CFSR_MUNSTKERR_Msk) != 0) {
 8000ed0:	6a9a      	ldr	r2, [r3, #40]	; 0x28
		PR_FAULT_INFO("  Unstacking error");
	}
	if ((SCB->CFSR & SCB_CFSR_DACCVIOL_Msk) != 0) {
 8000ed2:	6a9a      	ldr	r2, [r3, #40]	; 0x28
 8000ed4:	0792      	lsls	r2, r2, #30
{
 8000ed6:	4606      	mov	r6, r0
	if ((SCB->CFSR & SCB_CFSR_DACCVIOL_Msk) != 0) {
 8000ed8:	d522      	bpl.n	8000f20 <mem_manage_fault+0x58>
		 * The MMFAR address is valid only if this bit is 1.
		 *
		 * Software must follow this sequence because another higher
		 * priority exception might change the MMFAR value.
		 */
		uint32_t temp = SCB->MMFAR;
 8000eda:	6b58      	ldr	r0, [r3, #52]	; 0x34

		if ((SCB->CFSR & SCB_CFSR_MMARVALID_Msk) != 0) {
 8000edc:	6a9a      	ldr	r2, [r3, #40]	; 0x28
 8000ede:	0614      	lsls	r4, r2, #24
 8000ee0:	d51e      	bpl.n	8000f20 <mem_manage_fault+0x58>
			mmfar = temp;
			PR_EXC("  MMFAR Address: 0x%x", mmfar);
			if (from_hard_fault != 0) {
 8000ee2:	b119      	cbz	r1, 8000eec <mem_manage_fault+0x24>
				/* clear SCB_MMAR[VALID] to reset */
				SCB->CFSR &= ~SCB_CFSR_MMARVALID_Msk;
 8000ee4:	6a9a      	ldr	r2, [r3, #40]	; 0x28
 8000ee6:	f022 0280 	bic.w	r2, r2, #128	; 0x80
 8000eea:	629a      	str	r2, [r3, #40]	; 0x28
			}
		}
	}
	if ((SCB->CFSR & SCB_CFSR_IACCVIOL_Msk) != 0) {
 8000eec:	6a9a      	ldr	r2, [r3, #40]	; 0x28
		PR_FAULT_INFO("  Instruction Access Violation");
	}
#if defined(CONFIG_ARMV7_M_ARMV8_M_FP)
	if ((SCB->CFSR & SCB_CFSR_MLSPERR_Msk) != 0) {
 8000eee:	6a9a      	ldr	r2, [r3, #40]	; 0x28
	 * crossed into an area beyond the thread stack.]
	 *
	 * Data Access Violation errors may or may not be caused by
	 * thread stack overflows.
	 */
	if ((SCB->CFSR & SCB_CFSR_MSTKERR_Msk) ||
 8000ef0:	6a9a      	ldr	r2, [r3, #40]	; 0x28
 8000ef2:	4c13      	ldr	r4, [pc, #76]	; (8000f40 <mem_manage_fault+0x78>)
 8000ef4:	f012 0f10 	tst.w	r2, #16
 8000ef8:	d115      	bne.n	8000f26 <mem_manage_fault+0x5e>
		(SCB->CFSR & SCB_CFSR_DACCVIOL_Msk)) {
 8000efa:	6a9b      	ldr	r3, [r3, #40]	; 0x28
	if ((SCB->CFSR & SCB_CFSR_MSTKERR_Msk) ||
 8000efc:	0799      	lsls	r1, r3, #30
 8000efe:	d412      	bmi.n	8000f26 <mem_manage_fault+0x5e>
	uint32_t reason = K_ERR_CPU_EXCEPTION;
 8000f00:	2000      	movs	r0, #0
	 * lazy stacking Memory Manage fault. At the time of writing, this
	 * can happen when printing.  If that's true, we should clear the
	 * pending flag in addition to the clearing the reason for the fault
	 */
#if defined(CONFIG_ARMV7_M_ARMV8_M_FP)
	if ((SCB->CFSR & SCB_CFSR_MLSPERR_Msk) != 0) {
 8000f02:	6aa3      	ldr	r3, [r4, #40]	; 0x28
		SCB->SHCSR &= ~SCB_SHCSR_MEMFAULTPENDED_Msk;
	}
#endif /* CONFIG_ARMV7_M_ARMV8_M_FP */

	/* clear MMFSR sticky bits */
	SCB->CFSR |= SCB_CFSR_MEMFAULTSR_Msk;
 8000f04:	4a0e      	ldr	r2, [pc, #56]	; (8000f40 <mem_manage_fault+0x78>)
	if ((SCB->CFSR & SCB_CFSR_MLSPERR_Msk) != 0) {
 8000f06:	069b      	lsls	r3, r3, #26
		SCB->SHCSR &= ~SCB_SHCSR_MEMFAULTPENDED_Msk;
 8000f08:	bf42      	ittt	mi
 8000f0a:	6a63      	ldrmi	r3, [r4, #36]	; 0x24
 8000f0c:	f423 5300 	bicmi.w	r3, r3, #8192	; 0x2000
 8000f10:	6263      	strmi	r3, [r4, #36]	; 0x24
	SCB->CFSR |= SCB_CFSR_MEMFAULTSR_Msk;
 8000f12:	6a93      	ldr	r3, [r2, #40]	; 0x28
 8000f14:	f043 03ff 	orr.w	r3, r3, #255	; 0xff
 8000f18:	6293      	str	r3, [r2, #40]	; 0x28

	/* Assess whether system shall ignore/recover from this MPU fault. */
	*recoverable = memory_fault_recoverable(esf, true);
 8000f1a:	2300      	movs	r3, #0
 8000f1c:	702b      	strb	r3, [r5, #0]

	return reason;
}
 8000f1e:	bd70      	pop	{r4, r5, r6, pc}
	uint32_t mmfar = -EINVAL;
 8000f20:	f06f 0015 	mvn.w	r0, #21
 8000f24:	e7e2      	b.n	8000eec <mem_manage_fault+0x24>
		if (SCB->ICSR & SCB_ICSR_RETTOBASE_Msk) {
 8000f26:	6863      	ldr	r3, [r4, #4]
 8000f28:	051a      	lsls	r2, r3, #20
 8000f2a:	d5e9      	bpl.n	8000f00 <mem_manage_fault+0x38>
			uint32_t min_stack_ptr = z_check_thread_stack_fail(mmfar,
 8000f2c:	4631      	mov	r1, r6
 8000f2e:	f7ff ff7d 	bl	8000e2c <z_check_thread_stack_fail>
			if (min_stack_ptr) {
 8000f32:	2800      	cmp	r0, #0
 8000f34:	d0e4      	beq.n	8000f00 <mem_manage_fault+0x38>
  \details Assigns the given value to the Process Stack Pointer (PSP).
  \param [in]    topOfProcStack  Process Stack Pointer value to set
 */
__STATIC_FORCEINLINE void __set_PSP(uint32_t topOfProcStack)
{
  __ASM volatile ("MSR psp, %0" : : "r" (topOfProcStack) : );
 8000f36:	f380 8809 	msr	PSP, r0
				reason = K_ERR_STACK_CHK_FAIL;
 8000f3a:	2002      	movs	r0, #2
 8000f3c:	e7e1      	b.n	8000f02 <mem_manage_fault+0x3a>
 8000f3e:	bf00      	nop
 8000f40:	e000ed00 	.word	0xe000ed00

08000f44 <bus_fault.constprop.0>:
{
	uint32_t reason = K_ERR_CPU_EXCEPTION;

	PR_FAULT_INFO("***** BUS FAULT *****");

	if (SCB->CFSR & SCB_CFSR_STKERR_Msk) {
 8000f44:	4b0d      	ldr	r3, [pc, #52]	; (8000f7c <bus_fault.constprop.0+0x38>)
 8000f46:	6a9a      	ldr	r2, [r3, #40]	; 0x28
		PR_FAULT_INFO("  Stacking error");
	}
	if (SCB->CFSR & SCB_CFSR_UNSTKERR_Msk) {
 8000f48:	6a9a      	ldr	r2, [r3, #40]	; 0x28
		PR_FAULT_INFO("  Unstacking error");
	}
	if (SCB->CFSR & SCB_CFSR_PRECISERR_Msk) {
 8000f4a:	6a9a      	ldr	r2, [r3, #40]	; 0x28
 8000f4c:	0592      	lsls	r2, r2, #22
 8000f4e:	d508      	bpl.n	8000f62 <bus_fault.constprop.0+0x1e>
		 * The BFAR address is valid only if this bit is 1.
		 *
		 * Software must follow this sequence because another
		 * higher priority exception might change the BFAR value.
		 */
		STORE_xFAR(bfar, SCB->BFAR);
 8000f50:	6b9a      	ldr	r2, [r3, #56]	; 0x38

		if ((SCB->CFSR & SCB_CFSR_BFARVALID_Msk) != 0) {
 8000f52:	6a9a      	ldr	r2, [r3, #40]	; 0x28
 8000f54:	0412      	lsls	r2, r2, #16
 8000f56:	d504      	bpl.n	8000f62 <bus_fault.constprop.0+0x1e>
			PR_EXC("  BFAR Address: 0x%x", bfar);
			if (from_hard_fault != 0) {
 8000f58:	b118      	cbz	r0, 8000f62 <bus_fault.constprop.0+0x1e>
				/* clear SCB_CFSR_BFAR[VALID] to reset */
				SCB->CFSR &= ~SCB_CFSR_BFARVALID_Msk;
 8000f5a:	6a9a      	ldr	r2, [r3, #40]	; 0x28
 8000f5c:	f422 4200 	bic.w	r2, r2, #32768	; 0x8000
 8000f60:	629a      	str	r2, [r3, #40]	; 0x28
			}
		}
	}
	if (SCB->CFSR & SCB_CFSR_IMPRECISERR_Msk) {
 8000f62:	6a9a      	ldr	r2, [r3, #40]	; 0x28
		PR_FAULT_INFO("  Imprecise data bus error");
	}
	if ((SCB->CFSR & SCB_CFSR_IBUSERR_Msk) != 0) {
 8000f64:	6a9a      	ldr	r2, [r3, #40]	; 0x28
 8000f66:	05d2      	lsls	r2, r2, #23
		SYSMPU->CESR &= ~sperr;
	}
#endif /* defined(CONFIG_ARM_MPU) && defined(CONFIG_CPU_HAS_NXP_MPU) */

	/* clear BFSR sticky bits */
	SCB->CFSR |= SCB_CFSR_BUSFAULTSR_Msk;
 8000f68:	4a04      	ldr	r2, [pc, #16]	; (8000f7c <bus_fault.constprop.0+0x38>)
	} else if (SCB->CFSR & SCB_CFSR_LSPERR_Msk) {
 8000f6a:	bf58      	it	pl
 8000f6c:	6a9b      	ldrpl	r3, [r3, #40]	; 0x28
	SCB->CFSR |= SCB_CFSR_BUSFAULTSR_Msk;
 8000f6e:	6a93      	ldr	r3, [r2, #40]	; 0x28

	*recoverable = memory_fault_recoverable(esf, true);
 8000f70:	2000      	movs	r0, #0
	SCB->CFSR |= SCB_CFSR_BUSFAULTSR_Msk;
 8000f72:	f443 437f 	orr.w	r3, r3, #65280	; 0xff00
 8000f76:	6293      	str	r3, [r2, #40]	; 0x28
	*recoverable = memory_fault_recoverable(esf, true);
 8000f78:	7008      	strb	r0, [r1, #0]

	return reason;
}
 8000f7a:	4770      	bx	lr
 8000f7c:	e000ed00 	.word	0xe000ed00

08000f80 <z_arm_fault>:
 * @param callee_regs Callee-saved registers (R4-R11, PSP)
 *
 */
void z_arm_fault(uint32_t msp, uint32_t psp, uint32_t exc_return,
	_callee_saved_t *callee_regs)
{
 8000f80:	b570      	push	{r4, r5, r6, lr}
	uint32_t reason = K_ERR_CPU_EXCEPTION;
	int fault = SCB->ICSR & SCB_ICSR_VECTACTIVE_Msk;
 8000f82:	4b4a      	ldr	r3, [pc, #296]	; (80010ac <z_arm_fault+0x12c>)
 8000f84:	685b      	ldr	r3, [r3, #4]
{
 8000f86:	b08a      	sub	sp, #40	; 0x28
 8000f88:	4605      	mov	r5, r0
	int fault = SCB->ICSR & SCB_ICSR_VECTACTIVE_Msk;
 8000f8a:	f3c3 0308 	ubfx	r3, r3, #0, #9
 8000f8e:	2600      	movs	r6, #0
 8000f90:	f386 8811 	msr	BASEPRI, r6
 8000f94:	f3bf 8f6f 	isb	sy
	if ((exc_return & EXC_RETURN_INDICATOR_PREFIX) !=
 8000f98:	f002 407f 	and.w	r0, r2, #4278190080	; 0xff000000
 8000f9c:	f1b0 4f7f 	cmp.w	r0, #4278190080	; 0xff000000
 8000fa0:	d111      	bne.n	8000fc6 <z_arm_fault+0x46>
	if ((exc_return & EXC_RETURN_MODE_THREAD) &&
 8000fa2:	f002 000c 	and.w	r0, r2, #12
 8000fa6:	2808      	cmp	r0, #8
 8000fa8:	d00d      	beq.n	8000fc6 <z_arm_fault+0x46>
		if (exc_return & EXC_RETURN_MODE_THREAD) {
 8000faa:	0710      	lsls	r0, r2, #28
			ptr_esf =  (z_arch_esf_t *)psp;
 8000fac:	bf4c      	ite	mi
 8000fae:	460d      	movmi	r5, r1
			*nested_exc = true;
 8000fb0:	2601      	movpl	r6, #1
	*recoverable = false;
 8000fb2:	2200      	movs	r2, #0
	switch (fault) {
 8000fb4:	3b03      	subs	r3, #3
	*recoverable = false;
 8000fb6:	f88d 2007 	strb.w	r2, [sp, #7]
	switch (fault) {
 8000fba:	2b03      	cmp	r3, #3
 8000fbc:	d84d      	bhi.n	800105a <z_arm_fault+0xda>
 8000fbe:	e8df f003 	tbb	[pc, r3]
 8000fc2:	6504      	.short	0x6504
 8000fc4:	6d69      	.short	0x6d69
		return NULL;
 8000fc6:	4635      	mov	r5, r6
 8000fc8:	e7f3      	b.n	8000fb2 <z_arm_fault+0x32>
	if ((SCB->HFSR & SCB_HFSR_VECTTBL_Msk) != 0) {
 8000fca:	4b38      	ldr	r3, [pc, #224]	; (80010ac <z_arm_fault+0x12c>)
 8000fcc:	6ada      	ldr	r2, [r3, #44]	; 0x2c
 8000fce:	0791      	lsls	r1, r2, #30
 8000fd0:	d443      	bmi.n	800105a <z_arm_fault+0xda>
	} else if ((SCB->HFSR & SCB_HFSR_DEBUGEVT_Msk) != 0) {
 8000fd2:	6ada      	ldr	r2, [r3, #44]	; 0x2c
 8000fd4:	2a00      	cmp	r2, #0
 8000fd6:	db40      	blt.n	800105a <z_arm_fault+0xda>
	} else if ((SCB->HFSR & SCB_HFSR_FORCED_Msk) != 0) {
 8000fd8:	6ada      	ldr	r2, [r3, #44]	; 0x2c
 8000fda:	0052      	lsls	r2, r2, #1
 8000fdc:	d53d      	bpl.n	800105a <z_arm_fault+0xda>
	SCB->CCR |= SCB_CCR_BFHFNMIGN_Msk;
 8000fde:	695a      	ldr	r2, [r3, #20]
	uint16_t *ret_addr = (uint16_t *)esf->basic.pc;
 8000fe0:	69a9      	ldr	r1, [r5, #24]
	SCB->CCR |= SCB_CCR_BFHFNMIGN_Msk;
 8000fe2:	f442 7280 	orr.w	r2, r2, #256	; 0x100
 8000fe6:	615a      	str	r2, [r3, #20]
  __ASM volatile ("dsb 0xF":::"memory");
 8000fe8:	f3bf 8f4f 	dsb	sy
  __ASM volatile ("isb 0xF":::"memory");
 8000fec:	f3bf 8f6f 	isb	sy
	SCB->CCR &= ~SCB_CCR_BFHFNMIGN_Msk;
 8000ff0:	695a      	ldr	r2, [r3, #20]
	uint16_t fault_insn = *(ret_addr - 1);
 8000ff2:	f831 1c02 	ldrh.w	r1, [r1, #-2]
	SCB->CCR &= ~SCB_CCR_BFHFNMIGN_Msk;
 8000ff6:	f422 7280 	bic.w	r2, r2, #256	; 0x100
 8000ffa:	615a      	str	r2, [r3, #20]
  __ASM volatile ("dsb 0xF":::"memory");
 8000ffc:	f3bf 8f4f 	dsb	sy
  __ASM volatile ("isb 0xF":::"memory");
 8001000:	f3bf 8f6f 	isb	sy
	if (((fault_insn & 0xff00) == _SVC_OPCODE) &&
 8001004:	f64d 7202 	movw	r2, #57090	; 0xdf02
 8001008:	4291      	cmp	r1, r2
 800100a:	d009      	beq.n	8001020 <z_arm_fault+0xa0>
		} else if ((SCB->CFSR & SCB_CFSR_MEMFAULTSR_Msk) != 0) {
 800100c:	6a9a      	ldr	r2, [r3, #40]	; 0x28
 800100e:	b2d2      	uxtb	r2, r2
 8001010:	b142      	cbz	r2, 8001024 <z_arm_fault+0xa4>
			reason = mem_manage_fault(esf, 1, recoverable);
 8001012:	f10d 0207 	add.w	r2, sp, #7
 8001016:	2101      	movs	r1, #1
		reason = mem_manage_fault(esf, 0, recoverable);
 8001018:	4628      	mov	r0, r5
 800101a:	f7ff ff55 	bl	8000ec8 <mem_manage_fault>
 800101e:	e00a      	b.n	8001036 <z_arm_fault+0xb6>
			reason = esf->basic.r0;
 8001020:	682c      	ldr	r4, [r5, #0]
 8001022:	e01b      	b.n	800105c <z_arm_fault+0xdc>
		} else if ((SCB->CFSR & SCB_CFSR_BUSFAULTSR_Msk) != 0) {
 8001024:	6a9a      	ldr	r2, [r3, #40]	; 0x28
 8001026:	f412 4f7f 	tst.w	r2, #65280	; 0xff00
 800102a:	d006      	beq.n	800103a <z_arm_fault+0xba>
			reason = bus_fault(esf, 1, recoverable);
 800102c:	f10d 0107 	add.w	r1, sp, #7
 8001030:	2001      	movs	r0, #1
 8001032:	f7ff ff87 	bl	8000f44 <bus_fault.constprop.0>
 8001036:	4604      	mov	r4, r0
 8001038:	e010      	b.n	800105c <z_arm_fault+0xdc>
		} else if ((SCB->CFSR & SCB_CFSR_USGFAULTSR_Msk) != 0) {
 800103a:	6a9a      	ldr	r2, [r3, #40]	; 0x28
 800103c:	f5b2 3f80 	cmp.w	r2, #65536	; 0x10000
 8001040:	d30b      	bcc.n	800105a <z_arm_fault+0xda>
	if ((SCB->CFSR & SCB_CFSR_DIVBYZERO_Msk) != 0) {
 8001042:	6a9a      	ldr	r2, [r3, #40]	; 0x28
	if ((SCB->CFSR & SCB_CFSR_UNALIGNED_Msk) != 0) {
 8001044:	6a9a      	ldr	r2, [r3, #40]	; 0x28
	if ((SCB->CFSR & SCB_CFSR_NOCP_Msk) != 0) {
 8001046:	6a9a      	ldr	r2, [r3, #40]	; 0x28
	if ((SCB->CFSR & SCB_CFSR_INVPC_Msk) != 0) {
 8001048:	6a9a      	ldr	r2, [r3, #40]	; 0x28
	if ((SCB->CFSR & SCB_CFSR_INVSTATE_Msk) != 0) {
 800104a:	6a9a      	ldr	r2, [r3, #40]	; 0x28
	if ((SCB->CFSR & SCB_CFSR_UNDEFINSTR_Msk) != 0) {
 800104c:	6a9a      	ldr	r2, [r3, #40]	; 0x28
	SCB->CFSR |= SCB_CFSR_USGFAULTSR_Msk;
 800104e:	6a9a      	ldr	r2, [r3, #40]	; 0x28
 8001050:	ea6f 4202 	mvn.w	r2, r2, lsl #16
 8001054:	ea6f 4212 	mvn.w	r2, r2, lsr #16
 8001058:	629a      	str	r2, [r3, #40]	; 0x28
		return NULL;
 800105a:	2400      	movs	r4, #0
#ifdef CONFIG_DEBUG_COREDUMP
	z_arm_coredump_fault_sp = POINTER_TO_UINT(esf);
#endif

	reason = fault_handle(esf, fault, &recoverable);
	if (recoverable) {
 800105c:	f89d 3007 	ldrb.w	r3, [sp, #7]
 8001060:	b993      	cbnz	r3, 8001088 <z_arm_fault+0x108>
		return;
	}

	/* Copy ESF */
#if !defined(CONFIG_EXTRA_EXCEPTION_INFO)
	memcpy(&esf_copy, esf, sizeof(z_arch_esf_t));
 8001062:	2220      	movs	r2, #32
 8001064:	4629      	mov	r1, r5
 8001066:	a802      	add	r0, sp, #8
 8001068:	f001 fc0c 	bl	8002884 <memcpy>
	/* Overwrite stacked IPSR to mark a nested exception,
	 * or a return to Thread mode. Note that this may be
	 * required, if the retrieved ESF contents are invalid
	 * due to, for instance, a stacking error.
	 */
	if (nested_exc) {
 800106c:	9b09      	ldr	r3, [sp, #36]	; 0x24
 800106e:	b1be      	cbz	r6, 80010a0 <z_arm_fault+0x120>
		if ((esf_copy.basic.xpsr & IPSR_ISR_Msk) == 0) {
 8001070:	f3c3 0208 	ubfx	r2, r3, #0, #9
 8001074:	b922      	cbnz	r2, 8001080 <z_arm_fault+0x100>
			esf_copy.basic.xpsr |= IPSR_ISR_Msk;
 8001076:	ea6f 2353 	mvn.w	r3, r3, lsr #9
 800107a:	ea6f 2343 	mvn.w	r3, r3, lsl #9
		}
	} else {
		esf_copy.basic.xpsr &= ~(IPSR_ISR_Msk);
 800107e:	9309      	str	r3, [sp, #36]	; 0x24
	}

	z_arm_fatal_error(reason, &esf_copy);
 8001080:	a902      	add	r1, sp, #8
 8001082:	4620      	mov	r0, r4
 8001084:	f001 fbdd 	bl	8002842 <z_arm_fatal_error>
}
 8001088:	b00a      	add	sp, #40	; 0x28
 800108a:	bd70      	pop	{r4, r5, r6, pc}
		reason = mem_manage_fault(esf, 0, recoverable);
 800108c:	f10d 0207 	add.w	r2, sp, #7
 8001090:	2100      	movs	r1, #0
 8001092:	e7c1      	b.n	8001018 <z_arm_fault+0x98>
		reason = bus_fault(esf, 0, recoverable);
 8001094:	f10d 0107 	add.w	r1, sp, #7
 8001098:	2000      	movs	r0, #0
 800109a:	e7ca      	b.n	8001032 <z_arm_fault+0xb2>
	if ((SCB->CFSR & SCB_CFSR_DIVBYZERO_Msk) != 0) {
 800109c:	4b03      	ldr	r3, [pc, #12]	; (80010ac <z_arm_fault+0x12c>)
 800109e:	e7d0      	b.n	8001042 <z_arm_fault+0xc2>
		esf_copy.basic.xpsr &= ~(IPSR_ISR_Msk);
 80010a0:	f423 73ff 	bic.w	r3, r3, #510	; 0x1fe
 80010a4:	f023 0301 	bic.w	r3, r3, #1
 80010a8:	e7e9      	b.n	800107e <z_arm_fault+0xfe>
 80010aa:	bf00      	nop
 80010ac:	e000ed00 	.word	0xe000ed00

080010b0 <z_arm_fault_init>:
 */
void z_arm_fault_init(void)
{
#if defined(CONFIG_ARMV6_M_ARMV8_M_BASELINE)
#elif defined(CONFIG_ARMV7_M_ARMV8_M_MAINLINE)
	SCB->CCR |= SCB_CCR_DIV_0_TRP_Msk;
 80010b0:	4a02      	ldr	r2, [pc, #8]	; (80010bc <z_arm_fault_init+0xc>)
 80010b2:	6953      	ldr	r3, [r2, #20]
 80010b4:	f043 0310 	orr.w	r3, r3, #16
 80010b8:	6153      	str	r3, [r2, #20]
	SCB->CCR |= SCB_CCR_STKOFHFNMIGN_Msk;
#endif /* CONFIG_BUILTIN_STACK_GUARD */
#ifdef CONFIG_TRAP_UNALIGNED_ACCESS
	SCB->CCR |= SCB_CCR_UNALIGN_TRP_Msk;
#endif /* CONFIG_TRAP_UNALIGNED_ACCESS */
}
 80010ba:	4770      	bx	lr
 80010bc:	e000ed00 	.word	0xe000ed00

080010c0 <z_arm_bus_fault>:
#else
#error Unknown ARM architecture
#endif /* CONFIG_ARMV6_M_ARMV8_M_BASELINE */
SECTION_SUBSEC_FUNC(TEXT,__fault,z_arm_exc_spurious)

	mrs r0, MSP
 80010c0:	f3ef 8008 	mrs	r0, MSP
	mrs r1, PSP
 80010c4:	f3ef 8109 	mrs	r1, PSP
	push {r0, lr}
 80010c8:	b501      	push	{r0, lr}
#elif defined(CONFIG_ARMV7_M_ARMV8_M_MAINLINE)
	push {r4-r11}
#endif
	mov  r3, sp /* pointer to _callee_saved_t */
#endif /* CONFIG_EXTRA_EXCEPTION_INFO */
	mov r2, lr /* EXC_RETURN */
 80010ca:	4672      	mov	r2, lr
	bl z_arm_fault
 80010cc:	f7ff ff58 	bl	8000f80 <z_arm_fault>
	 * in this routine. Therefore, we can just reset
	 * the MSP to its value prior to entering the function
	 */
	add sp, #40
#endif
	pop {r0, pc}
 80010d0:	bd01      	pop	{r0, pc}
 80010d2:	bf00      	nop

080010d4 <z_arm_interrupt_init>:
 80010d4:	4804      	ldr	r0, [pc, #16]	; (80010e8 <z_arm_interrupt_init+0x14>)
 *
 */

void z_arm_interrupt_init(void)
{
	int irq = 0;
 80010d6:	2300      	movs	r3, #0
 80010d8:	2110      	movs	r1, #16
 80010da:	18c2      	adds	r2, r0, r3

	for (; irq < CONFIG_NUM_IRQS; irq++) {
 80010dc:	3301      	adds	r3, #1
 80010de:	2b53      	cmp	r3, #83	; 0x53
 80010e0:	f882 1300 	strb.w	r1, [r2, #768]	; 0x300
 80010e4:	d1f9      	bne.n	80010da <z_arm_interrupt_init+0x6>
		NVIC_SetPriority((IRQn_Type)irq, _IRQ_PRIO_OFFSET);
	}
}
 80010e6:	4770      	bx	lr
 80010e8:	e000e100 	.word	0xe000e100

080010ec <__start>:

    /* lock interrupts: will get unlocked when switch to main task */
#if defined(CONFIG_ARMV6_M_ARMV8_M_BASELINE)
    cpsid i
#elif defined(CONFIG_ARMV7_M_ARMV8_M_MAINLINE)
    movs.n r0, #_EXC_IRQ_DEFAULT_PRIO
 80010ec:	2010      	movs	r0, #16
    msr BASEPRI, r0
 80010ee:	f380 8811 	msr	BASEPRI, r0

    /*
     * Set PSP and use it to boot without using MSP, so that it
     * gets set to z_interrupt_stacks during initialization.
     */
    ldr r0, =z_interrupt_stacks
 80010f2:	4808      	ldr	r0, [pc, #32]	; (8001114 <__start+0x28>)
    ldr r1, =CONFIG_ISR_STACK_SIZE + MPU_GUARD_ALIGN_AND_SIZE
 80010f4:	f44f 6104 	mov.w	r1, #2112	; 0x840
    adds r0, r0, r1
 80010f8:	1840      	adds	r0, r0, r1
    msr PSP, r0
 80010fa:	f380 8809 	msr	PSP, r0
    mrs r0, CONTROL
 80010fe:	f3ef 8014 	mrs	r0, CONTROL
    movs r1, #2
 8001102:	2102      	movs	r1, #2
    orrs r0, r1 /* CONTROL_SPSEL_Msk */
 8001104:	4308      	orrs	r0, r1
    msr CONTROL, r0
 8001106:	f380 8814 	msr	CONTROL, r0
    /*
     * When changing the stack pointer, software must use an ISB instruction
     * immediately after the MSR instruction. This ensures that instructions
     * after the ISB instruction execute using the new stack pointer.
     */
    isb
 800110a:	f3bf 8f6f 	isb	sy
    /*
     * 'bl' jumps the furthest of the branch instructions that are
     * supported on all platforms. So it is used when jumping to z_arm_prep_c
     * (even though we do not intend to return).
     */
    bl z_arm_prep_c
 800110e:	f7ff fdf9 	bl	8000d04 <z_arm_prep_c>
 8001112:	0000      	.short	0x0000
    ldr r0, =z_interrupt_stacks
 8001114:	20000280 	.word	0x20000280

08001118 <z_impl_k_thread_abort>:
#include <zephyr/wait_q.h>
#include <zephyr/sys/__assert.h>

void z_impl_k_thread_abort(k_tid_t thread)
{
	if (_current == thread) {
 8001118:	4b08      	ldr	r3, [pc, #32]	; (800113c <z_impl_k_thread_abort+0x24>)
 800111a:	689b      	ldr	r3, [r3, #8]
 800111c:	4283      	cmp	r3, r0
 800111e:	d10b      	bne.n	8001138 <z_impl_k_thread_abort+0x20>
  __ASM volatile ("MRS %0, ipsr" : "=r" (result) );
 8001120:	f3ef 8305 	mrs	r3, IPSR
		if (arch_is_in_isr()) {
 8001124:	b143      	cbz	r3, 8001138 <z_impl_k_thread_abort+0x20>
			 * should no longer run after we return, so
			 * Trigger PendSV, in case we are in one of the
			 * situations where the isr check is true but there
			 * is not an implicit scheduler invocation.
			 */
			SCB->ICSR |= SCB_ICSR_PENDSVSET_Msk;
 8001126:	4b06      	ldr	r3, [pc, #24]	; (8001140 <z_impl_k_thread_abort+0x28>)
 8001128:	685a      	ldr	r2, [r3, #4]
 800112a:	f042 5280 	orr.w	r2, r2, #268435456	; 0x10000000
 800112e:	605a      	str	r2, [r3, #4]
			/* Clear any system calls that may be pending
			 * as they have a higher priority than the PendSV
			 * handler and will check the stack of the thread
			 * being aborted.
			 */
			SCB->SHCSR &= ~SCB_SHCSR_SVCALLPENDED_Msk;
 8001130:	6a5a      	ldr	r2, [r3, #36]	; 0x24
 8001132:	f422 4200 	bic.w	r2, r2, #32768	; 0x8000
 8001136:	625a      	str	r2, [r3, #36]	; 0x24
		}
	}

	z_thread_abort(thread);
 8001138:	f001 b92e 	b.w	8002398 <z_thread_abort>
 800113c:	2000023c 	.word	0x2000023c
 8001140:	e000ed00 	.word	0xe000ed00

08001144 <z_arm_configure_static_mpu_regions>:
	/* Configure the static MPU regions within firmware SRAM boundaries.
	 * Start address of the image is given by _image_ram_start. The end
	 * of the firmware SRAM area is marked by __kernel_ram_end, taking
	 * into account the unused SRAM area, as well.
	 */
	arm_core_mpu_configure_static_mpu_regions(static_regions,
 8001144:	4b02      	ldr	r3, [pc, #8]	; (8001150 <z_arm_configure_static_mpu_regions+0xc>)
 8001146:	4a03      	ldr	r2, [pc, #12]	; (8001154 <z_arm_configure_static_mpu_regions+0x10>)
 8001148:	4803      	ldr	r0, [pc, #12]	; (8001158 <z_arm_configure_static_mpu_regions+0x14>)
 800114a:	2101      	movs	r1, #1
 800114c:	f000 b870 	b.w	8001230 <arm_core_mpu_configure_static_mpu_regions>
 8001150:	20010000 	.word	0x20010000
 8001154:	20000000 	.word	0x20000000
 8001158:	0800336c 	.word	0x0800336c

0800115c <z_arm_configure_dynamic_mpu_regions>:
#endif /* CONFIG_USERSPACE */
	{
		/* A supervisor thread only has the normal thread stack to
		 * protect with a stack guard.
		 */
		guard_start = thread->stack_info.start - guard_size;
 800115c:	6e42      	ldr	r2, [r0, #100]	; 0x64
	}

	__ASSERT(region_num < _MAX_DYNAMIC_MPU_REGIONS_NUM,
		"Out-of-bounds error for dynamic region map.");

	dynamic_regions[region_num].start = guard_start;
 800115e:	4b05      	ldr	r3, [pc, #20]	; (8001174 <z_arm_configure_dynamic_mpu_regions+0x18>)
		guard_start = thread->stack_info.start - guard_size;
 8001160:	3a40      	subs	r2, #64	; 0x40
	dynamic_regions[region_num].start = guard_start;
 8001162:	601a      	str	r2, [r3, #0]
	dynamic_regions[region_num].size = guard_size;
	dynamic_regions[region_num].attr = K_MEM_PARTITION_P_RO_U_NA;
 8001164:	4a04      	ldr	r2, [pc, #16]	; (8001178 <z_arm_configure_dynamic_mpu_regions+0x1c>)
 8001166:	2140      	movs	r1, #64	; 0x40
 8001168:	e9c3 1201 	strd	r1, r2, [r3, #4]

	/* Configure the dynamic MPU regions */
#ifdef CONFIG_AARCH32_ARMV8_R
	arm_core_mpu_disable();
#endif
	arm_core_mpu_configure_dynamic_mpu_regions(dynamic_regions,
 800116c:	4618      	mov	r0, r3
 800116e:	2101      	movs	r1, #1
 8001170:	f000 b868 	b.w	8001244 <arm_core_mpu_configure_dynamic_mpu_regions>
 8001174:	20000160 	.word	0x20000160
 8001178:	150b0000 	.word	0x150b0000

0800117c <mpu_configure_regions>:
 * sanity check of the memory regions to be programmed.
 */
static int mpu_configure_regions(const struct z_arm_mpu_partition
	regions[], uint8_t regions_num, uint8_t start_reg_index,
	bool do_sanity_check)
{
 800117c:	b5f0      	push	{r4, r5, r6, r7, lr}
#endif /* CPU_CORTEX_M0PLUS | CPU_CORTEX_M3 | CPU_CORTEX_M4 */
}

static inline void set_region_number(uint32_t index)
{
	MPU->RNR = index;
 800117e:	4e20      	ldr	r6, [pc, #128]	; (8001200 <mpu_configure_regions+0x84>)
	int i;
	int reg_index = start_reg_index;

	for (i = 0; i < regions_num; i++) {
 8001180:	2500      	movs	r5, #0
 8001182:	428d      	cmp	r5, r1
 8001184:	da39      	bge.n	80011fa <mpu_configure_regions+0x7e>
		if (regions[i].size == 0U) {
 8001186:	6844      	ldr	r4, [r0, #4]
 8001188:	b374      	cbz	r4, 80011e8 <mpu_configure_regions+0x6c>
			continue;
		}
		/* Non-empty region. */

		if (do_sanity_check &&
 800118a:	b153      	cbz	r3, 80011a2 <mpu_configure_regions+0x26>
	 * and greater or equal to the minimum
	 * MPU region size. Start address of the
	 * partition must align with size.
	 */
	int partition_is_valid =
		((part->size & (part->size - 1U)) == 0U)
 800118c:	f104 3cff 	add.w	ip, r4, #4294967295
		&&
		(part->size >= CONFIG_ARM_MPU_REGION_MIN_ALIGN_AND_SIZE)
		&&
 8001190:	ea14 0f0c 	tst.w	r4, ip
 8001194:	d12f      	bne.n	80011f6 <mpu_configure_regions+0x7a>
		&&
 8001196:	2c1f      	cmp	r4, #31
 8001198:	d92d      	bls.n	80011f6 <mpu_configure_regions+0x7a>
		((part->start & (part->size - 1U)) == 0U);
 800119a:	6807      	ldr	r7, [r0, #0]
		&&
 800119c:	ea1c 0f07 	tst.w	ip, r7
 80011a0:	d129      	bne.n	80011f6 <mpu_configure_regions+0x7a>
 * to that power-of-two value.
 */
static inline uint32_t size_to_mpu_rasr_size(uint32_t size)
{
	/* The minimal supported region size is 32 bytes */
	if (size <= 32U) {
 80011a2:	2c20      	cmp	r4, #32
	region_conf.base = new_region->start;
 80011a4:	6807      	ldr	r7, [r0, #0]
#if defined(CONFIG_CPU_AARCH32_CORTEX_R)
	(void) size;

	p_attr->rasr = attr->rasr_attr;
#else
	p_attr->rasr = attr->rasr_attr | size_to_mpu_rasr_size(size);
 80011a6:	f8d0 c008 	ldr.w	ip, [r0, #8]
				(!mpu_partition_is_valid(&regions[i]))) {
			LOG_ERR("Partition %u: sanity check failed.", i);
			return -EINVAL;
		}

		reg_index = mpu_configure_region(reg_index, &regions[i]);
 80011aa:	fa5f fe82 	uxtb.w	lr, r2
	if (size <= 32U) {
 80011ae:	d91e      	bls.n	80011ee <mpu_configure_regions+0x72>
	if (size > (1UL << 31)) {
 80011b0:	f1b4 4f00 	cmp.w	r4, #2147483648	; 0x80000000
 80011b4:	d81d      	bhi.n	80011f2 <mpu_configure_regions+0x76>
	return ((32 - __builtin_clz(size - 1U) - 2 + 1) << MPU_RASR_SIZE_Pos) &
 80011b6:	3c01      	subs	r4, #1
 80011b8:	fab4 f484 	clz	r4, r4
 80011bc:	f1c4 041f 	rsb	r4, r4, #31
 80011c0:	0064      	lsls	r4, r4, #1
	if (index > (get_num_regions() - 1U)) {
 80011c2:	f1be 0f07 	cmp.w	lr, #7
	p_attr->rasr = attr->rasr_attr | size_to_mpu_rasr_size(size);
 80011c6:	ea4c 0c04 	orr.w	ip, ip, r4
 80011ca:	d814      	bhi.n	80011f6 <mpu_configure_regions+0x7a>
	MPU->RBAR = (region_conf->base & MPU_RBAR_ADDR_Msk)
 80011cc:	f027 041f 	bic.w	r4, r7, #31
				| MPU_RBAR_VALID_Msk | index;
 80011d0:	4314      	orrs	r4, r2
 80011d2:	f044 0410 	orr.w	r4, r4, #16
 80011d6:	f8c6 2098 	str.w	r2, [r6, #152]	; 0x98
	MPU->RBAR = (region_conf->base & MPU_RBAR_ADDR_Msk)
 80011da:	f8c6 409c 	str.w	r4, [r6, #156]	; 0x9c
	MPU->RASR = region_conf->attr.rasr | MPU_RASR_ENABLE_Msk;
 80011de:	f04c 0401 	orr.w	r4, ip, #1
 80011e2:	f8c6 40a0 	str.w	r4, [r6, #160]	; 0xa0
		if (reg_index == -EINVAL) {
			return reg_index;
		}

		/* Increment number of programmed MPU indices. */
		reg_index++;
 80011e6:	3201      	adds	r2, #1
	for (i = 0; i < regions_num; i++) {
 80011e8:	3501      	adds	r5, #1
 80011ea:	300c      	adds	r0, #12
 80011ec:	e7c9      	b.n	8001182 <mpu_configure_regions+0x6>
		return REGION_32B;
 80011ee:	2408      	movs	r4, #8
 80011f0:	e7e7      	b.n	80011c2 <mpu_configure_regions+0x46>
		return REGION_4G;
 80011f2:	243e      	movs	r4, #62	; 0x3e
 80011f4:	e7e5      	b.n	80011c2 <mpu_configure_regions+0x46>
			return -EINVAL;
 80011f6:	f06f 0215 	mvn.w	r2, #21
	}

	return reg_index;
}
 80011fa:	4610      	mov	r0, r2
 80011fc:	bdf0      	pop	{r4, r5, r6, r7, pc}
 80011fe:	bf00      	nop
 8001200:	e000ed00 	.word	0xe000ed00

08001204 <arm_core_mpu_enable>:
void arm_core_mpu_enable(void)
{
	/* Enable MPU and use the default memory map as a
	 * background region for privileged software access.
	 */
	MPU->CTRL = MPU_CTRL_ENABLE_Msk | MPU_CTRL_PRIVDEFENA_Msk;
 8001204:	4b04      	ldr	r3, [pc, #16]	; (8001218 <arm_core_mpu_enable+0x14>)
 8001206:	2205      	movs	r2, #5
 8001208:	f8c3 2094 	str.w	r2, [r3, #148]	; 0x94
  __ASM volatile ("dsb 0xF":::"memory");
 800120c:	f3bf 8f4f 	dsb	sy
  __ASM volatile ("isb 0xF":::"memory");
 8001210:	f3bf 8f6f 	isb	sy

	/* Make sure that all the registers are set before proceeding */
	__DSB();
	__ISB();
}
 8001214:	4770      	bx	lr
 8001216:	bf00      	nop
 8001218:	e000ed00 	.word	0xe000ed00

0800121c <arm_core_mpu_disable>:
  __ASM volatile ("dmb 0xF":::"memory");
 800121c:	f3bf 8f5f 	dmb	sy
{
	/* Force any outstanding transfers to complete before disabling MPU */
	__DMB();

	/* Disable MPU */
	MPU->CTRL = 0;
 8001220:	4b02      	ldr	r3, [pc, #8]	; (800122c <arm_core_mpu_disable+0x10>)
 8001222:	2200      	movs	r2, #0
 8001224:	f8c3 2094 	str.w	r2, [r3, #148]	; 0x94
}
 8001228:	4770      	bx	lr
 800122a:	bf00      	nop
 800122c:	e000ed00 	.word	0xe000ed00

08001230 <arm_core_mpu_configure_static_mpu_regions>:
 * @brief configure fixed (static) MPU regions.
 */
void arm_core_mpu_configure_static_mpu_regions(const struct z_arm_mpu_partition
	*static_regions, const uint8_t regions_num,
	const uint32_t background_area_start, const uint32_t background_area_end)
{
 8001230:	b510      	push	{r4, lr}
static int mpu_configure_static_mpu_regions(const struct z_arm_mpu_partition
	static_regions[], const uint8_t regions_num,
	const uint32_t background_area_base,
	const uint32_t background_area_end)
{
	int mpu_reg_index = static_regions_num;
 8001232:	4c03      	ldr	r4, [pc, #12]	; (8001240 <arm_core_mpu_configure_static_mpu_regions+0x10>)
	 * programmed on top of SRAM region configuration.
	 */
	ARG_UNUSED(background_area_base);
	ARG_UNUSED(background_area_end);

	mpu_reg_index = mpu_configure_regions(static_regions,
 8001234:	2301      	movs	r3, #1
 8001236:	7822      	ldrb	r2, [r4, #0]
 8001238:	f7ff ffa0 	bl	800117c <mpu_configure_regions>
		regions_num, mpu_reg_index, true);

	static_regions_num = mpu_reg_index;
 800123c:	7020      	strb	r0, [r4, #0]
					       background_area_start, background_area_end) == -EINVAL) {

		__ASSERT(0, "Configuring %u static MPU regions failed\n",
			regions_num);
	}
}
 800123e:	bd10      	pop	{r4, pc}
 8001240:	20000270 	.word	0x20000270

08001244 <arm_core_mpu_configure_dynamic_mpu_regions>:
/**
 * @brief configure dynamic MPU regions.
 */
void arm_core_mpu_configure_dynamic_mpu_regions(const struct z_arm_mpu_partition
	*dynamic_regions, uint8_t regions_num)
{
 8001244:	b508      	push	{r3, lr}

	/* In ARMv7-M architecture the dynamic regions are
	 * programmed on top of existing SRAM region configuration.
	 */

	mpu_reg_index = mpu_configure_regions(dynamic_regions,
 8001246:	4a09      	ldr	r2, [pc, #36]	; (800126c <arm_core_mpu_configure_dynamic_mpu_regions+0x28>)
 8001248:	2300      	movs	r3, #0
 800124a:	7812      	ldrb	r2, [r2, #0]
 800124c:	f7ff ff96 	bl	800117c <mpu_configure_regions>
		regions_num, mpu_reg_index, false);

	if (mpu_reg_index != -EINVAL) {
 8001250:	f110 0f16 	cmn.w	r0, #22
 8001254:	d002      	beq.n	800125c <arm_core_mpu_configure_dynamic_mpu_regions+0x18>
/** Clear and disable the given MPU region.
* \param rnr Region number to be cleared.
*/
__STATIC_INLINE void ARM_MPU_ClrRegion(uint32_t rnr)
{
  MPU->RNR = rnr;
 8001256:	4a06      	ldr	r2, [pc, #24]	; (8001270 <arm_core_mpu_configure_dynamic_mpu_regions+0x2c>)

		/* Disable the non-programmed MPU regions. */
		for (int i = mpu_reg_index; i < get_num_regions(); i++) {
 8001258:	2807      	cmp	r0, #7
 800125a:	dd00      	ble.n	800125e <arm_core_mpu_configure_dynamic_mpu_regions+0x1a>
		== -EINVAL) {

		__ASSERT(0, "Configuring %u dynamic MPU regions failed\n",
			regions_num);
	}
}
 800125c:	bd08      	pop	{r3, pc}
 800125e:	f8c2 0098 	str.w	r0, [r2, #152]	; 0x98
  MPU->RASR = 0U;
 8001262:	f8c2 30a0 	str.w	r3, [r2, #160]	; 0xa0
 8001266:	3001      	adds	r0, #1
 8001268:	e7f6      	b.n	8001258 <arm_core_mpu_configure_dynamic_mpu_regions+0x14>
 800126a:	bf00      	nop
 800126c:	20000270 	.word	0x20000270
 8001270:	e000ed00 	.word	0xe000ed00

08001274 <z_arm_mpu_init>:
 */
int z_arm_mpu_init(void)
{
	uint32_t r_index;

	if (mpu_config.num_regions > get_num_regions()) {
 8001274:	4914      	ldr	r1, [pc, #80]	; (80012c8 <z_arm_mpu_init+0x54>)
 8001276:	6808      	ldr	r0, [r1, #0]
 8001278:	2808      	cmp	r0, #8
{
 800127a:	b510      	push	{r4, lr}
	if (mpu_config.num_regions > get_num_regions()) {
 800127c:	d821      	bhi.n	80012c2 <z_arm_mpu_init+0x4e>
		return -1;
	}

	LOG_DBG("total region count: %d", get_num_regions());

	arm_core_mpu_disable();
 800127e:	f7ff ffcd 	bl	800121c <arm_core_mpu_disable>
 8001282:	4c12      	ldr	r4, [pc, #72]	; (80012cc <z_arm_mpu_init+0x58>)
 8001284:	6849      	ldr	r1, [r1, #4]

	/* Architecture-specific configuration */
	mpu_init();

	/* Program fixed regions configured at SOC definition. */
	for (r_index = 0U; r_index < mpu_config.num_regions; r_index++) {
 8001286:	2200      	movs	r2, #0
 8001288:	4290      	cmp	r0, r2
 800128a:	f101 010c 	add.w	r1, r1, #12
 800128e:	d105      	bne.n	800129c <z_arm_mpu_init+0x28>
		region_init(r_index, &mpu_config.mpu_regions[r_index]);
	}

	/* Update the number of programmed MPU regions. */
	static_regions_num = mpu_config.num_regions;
 8001290:	4b0f      	ldr	r3, [pc, #60]	; (80012d0 <z_arm_mpu_init+0x5c>)
 8001292:	7018      	strb	r0, [r3, #0]


	arm_core_mpu_enable();
 8001294:	f7ff ffb6 	bl	8001204 <arm_core_mpu_enable>
		(MPU->TYPE & MPU_TYPE_DREGION_Msk) >> MPU_TYPE_DREGION_Pos ==
		NUM_MPU_REGIONS,
		"Invalid number of MPU regions\n");
#endif /* CORTEX_M0PLUS || CPU_CORTEX_M3 || CPU_CORTEX_M4 */

	return 0;
 8001298:	2000      	movs	r0, #0
}
 800129a:	bd10      	pop	{r4, pc}
 800129c:	f8c4 2098 	str.w	r2, [r4, #152]	; 0x98
	MPU->RBAR = (region_conf->base & MPU_RBAR_ADDR_Msk)
 80012a0:	f851 3c0c 	ldr.w	r3, [r1, #-12]
 80012a4:	f023 031f 	bic.w	r3, r3, #31
				| MPU_RBAR_VALID_Msk | index;
 80012a8:	4313      	orrs	r3, r2
 80012aa:	f043 0310 	orr.w	r3, r3, #16
	MPU->RBAR = (region_conf->base & MPU_RBAR_ADDR_Msk)
 80012ae:	f8c4 309c 	str.w	r3, [r4, #156]	; 0x9c
	MPU->RASR = region_conf->attr.rasr | MPU_RASR_ENABLE_Msk;
 80012b2:	f851 3c04 	ldr.w	r3, [r1, #-4]
 80012b6:	f043 0301 	orr.w	r3, r3, #1
 80012ba:	f8c4 30a0 	str.w	r3, [r4, #160]	; 0xa0
	for (r_index = 0U; r_index < mpu_config.num_regions; r_index++) {
 80012be:	3201      	adds	r2, #1
 80012c0:	e7e2      	b.n	8001288 <z_arm_mpu_init+0x14>
		return -1;
 80012c2:	f04f 30ff 	mov.w	r0, #4294967295
 80012c6:	e7e8      	b.n	800129a <z_arm_mpu_init+0x26>
 80012c8:	08003378 	.word	0x08003378
 80012cc:	e000ed00 	.word	0xe000ed00
 80012d0:	20000270 	.word	0x20000270

080012d4 <__stdout_hook_install>:

static int (*_stdout_hook)(int c) = _stdout_hook_default;

void __stdout_hook_install(int (*hook)(int c))
{
	_stdout_hook = hook;
 80012d4:	4b01      	ldr	r3, [pc, #4]	; (80012dc <__stdout_hook_install+0x8>)
 80012d6:	6018      	str	r0, [r3, #0]
}
 80012d8:	4770      	bx	lr
 80012da:	bf00      	nop
 80012dc:	20000004 	.word	0x20000004

080012e0 <__stm32_exti_isr.isra.0>:
 *
 * @param arg isr argument
 * @param min low end of EXTI# range
 * @param max low end of EXTI# range
 */
static void __stm32_exti_isr(int min, int max, const struct device *dev)
 80012e0:	e92d 43f8 	stmdb	sp!, {r3, r4, r5, r6, r7, r8, r9, lr}
  * @note   Please check each device line mapping for EXTI Line availability
  * @retval State of bit (1 or 0).
  */
__STATIC_INLINE uint32_t LL_EXTI_IsActiveFlag_0_31(uint32_t ExtiLine)
{
  return ((READ_BIT(EXTI->PR1, ExtiLine) == (ExtiLine)) ? 1UL : 0UL);
 80012e4:	4f0d      	ldr	r7, [pc, #52]	; (800131c <__stm32_exti_isr.isra.0+0x3c>)
 80012e6:	4604      	mov	r4, r0
 80012e8:	460e      	mov	r6, r1
 80012ea:	4615      	mov	r5, r2
		return LL_EXTI_IsActiveFlag_0_31(1 << line);
 80012ec:	f04f 0801 	mov.w	r8, #1
			/* run callback only if one is registered */
			if (!data->cb[line].cb) {
				continue;
			}

			data->cb[line].cb(line, data->cb[line].data);
 80012f0:	f102 0904 	add.w	r9, r2, #4
	for (line = min; line < max; line++) {
 80012f4:	42b4      	cmp	r4, r6
 80012f6:	db01      	blt.n	80012fc <__stm32_exti_isr.isra.0+0x1c>
		}
	}
}
 80012f8:	e8bd 83f8 	ldmia.w	sp!, {r3, r4, r5, r6, r7, r8, r9, pc}
 80012fc:	697a      	ldr	r2, [r7, #20]
		return LL_EXTI_IsActiveFlag_0_31(1 << line);
 80012fe:	fa08 f304 	lsl.w	r3, r8, r4
 8001302:	ea33 0202 	bics.w	r2, r3, r2
 8001306:	d107      	bne.n	8001318 <__stm32_exti_isr.isra.0+0x38>
  * @note   Please check each device line mapping for EXTI Line availability
  * @retval None
  */
__STATIC_INLINE void LL_EXTI_ClearFlag_0_31(uint32_t ExtiLine)
{
  WRITE_REG(EXTI->PR1, ExtiLine);
 8001308:	617b      	str	r3, [r7, #20]
			if (!data->cb[line].cb) {
 800130a:	f855 3034 	ldr.w	r3, [r5, r4, lsl #3]
 800130e:	b11b      	cbz	r3, 8001318 <__stm32_exti_isr.isra.0+0x38>
			data->cb[line].cb(line, data->cb[line].data);
 8001310:	f859 1034 	ldr.w	r1, [r9, r4, lsl #3]
 8001314:	4620      	mov	r0, r4
 8001316:	4798      	blx	r3
	for (line = min; line < max; line++) {
 8001318:	3401      	adds	r4, #1
 800131a:	e7eb      	b.n	80012f4 <__stm32_exti_isr.isra.0+0x14>
 800131c:	40010400 	.word	0x40010400

08001320 <stm32_exti_enable>:
  SET_BIT(EXTI->IMR1, ExtiLine);
 8001320:	4a04      	ldr	r2, [pc, #16]	; (8001334 <stm32_exti_enable+0x14>)
	LL_EXTI_EnableIT_0_31(1 << line);
 8001322:	2301      	movs	r3, #1
 8001324:	6811      	ldr	r1, [r2, #0]
 8001326:	4083      	lsls	r3, r0
 8001328:	430b      	orrs	r3, r1
 800132a:	6013      	str	r3, [r2, #0]
	irq_enable(irqnum);
 800132c:	4b02      	ldr	r3, [pc, #8]	; (8001338 <stm32_exti_enable+0x18>)
 800132e:	5618      	ldrsb	r0, [r3, r0]
 8001330:	f7ff bcbe 	b.w	8000cb0 <arch_irq_enable>
 8001334:	40010400 	.word	0x40010400
 8001338:	08003511 	.word	0x08003511

0800133c <stm32_exti_disable>:
	if (line < 32) {
 800133c:	281f      	cmp	r0, #31
 800133e:	dc06      	bgt.n	800134e <stm32_exti_disable+0x12>
  CLEAR_BIT(EXTI->IMR1, ExtiLine);
 8001340:	4903      	ldr	r1, [pc, #12]	; (8001350 <stm32_exti_disable+0x14>)
		LL_EXTI_DisableIT_0_31(1 << line);
 8001342:	2201      	movs	r2, #1
 8001344:	680b      	ldr	r3, [r1, #0]
 8001346:	4082      	lsls	r2, r0
 8001348:	ea23 0302 	bic.w	r3, r3, r2
 800134c:	600b      	str	r3, [r1, #0]
}
 800134e:	4770      	bx	lr
 8001350:	40010400 	.word	0x40010400

08001354 <stm32_exti_trigger>:
	switch (trigger) {
 8001354:	2903      	cmp	r1, #3
 8001356:	d82a      	bhi.n	80013ae <stm32_exti_trigger+0x5a>
 8001358:	e8df f001 	tbb	[pc, r1]
 800135c:	1f140e02 	.word	0x1f140e02
  CLEAR_BIT(EXTI->RTSR1, ExtiLine);
 8001360:	4b13      	ldr	r3, [pc, #76]	; (80013b0 <stm32_exti_trigger+0x5c>)
		LL_EXTI_DisableRisingTrig_0_31(1 << line);
 8001362:	2201      	movs	r2, #1
 8001364:	6899      	ldr	r1, [r3, #8]
 8001366:	4082      	lsls	r2, r0
 8001368:	ea21 0102 	bic.w	r1, r1, r2
  SET_BIT(EXTI->RTSR1, ExtiLine);
 800136c:	6099      	str	r1, [r3, #8]
  CLEAR_BIT(EXTI->FTSR1, ExtiLine);
 800136e:	68d9      	ldr	r1, [r3, #12]
 8001370:	ea21 0202 	bic.w	r2, r1, r2
 8001374:	60da      	str	r2, [r3, #12]
}
 8001376:	4770      	bx	lr
  SET_BIT(EXTI->RTSR1, ExtiLine);
 8001378:	4b0d      	ldr	r3, [pc, #52]	; (80013b0 <stm32_exti_trigger+0x5c>)
		LL_EXTI_EnableRisingTrig_0_31(1 << line);
 800137a:	2201      	movs	r2, #1
 800137c:	6899      	ldr	r1, [r3, #8]
 800137e:	4082      	lsls	r2, r0
 8001380:	4311      	orrs	r1, r2
 8001382:	e7f3      	b.n	800136c <stm32_exti_trigger+0x18>
  SET_BIT(EXTI->FTSR1, ExtiLine);
 8001384:	4b0a      	ldr	r3, [pc, #40]	; (80013b0 <stm32_exti_trigger+0x5c>)
		LL_EXTI_EnableFallingTrig_0_31(1 << line);
 8001386:	2201      	movs	r2, #1
 8001388:	68d9      	ldr	r1, [r3, #12]
 800138a:	4082      	lsls	r2, r0
 800138c:	4311      	orrs	r1, r2
 800138e:	60d9      	str	r1, [r3, #12]
  CLEAR_BIT(EXTI->RTSR1, ExtiLine);
 8001390:	6899      	ldr	r1, [r3, #8]
 8001392:	ea21 0202 	bic.w	r2, r1, r2
 8001396:	609a      	str	r2, [r3, #8]
}
 8001398:	4770      	bx	lr
		LL_EXTI_EnableRisingTrig_0_31(1 << line);
 800139a:	2301      	movs	r3, #1
 800139c:	fa03 f000 	lsl.w	r0, r3, r0
  SET_BIT(EXTI->RTSR1, ExtiLine);
 80013a0:	4b03      	ldr	r3, [pc, #12]	; (80013b0 <stm32_exti_trigger+0x5c>)
 80013a2:	689a      	ldr	r2, [r3, #8]
 80013a4:	4302      	orrs	r2, r0
 80013a6:	609a      	str	r2, [r3, #8]
  SET_BIT(EXTI->FTSR1, ExtiLine);
 80013a8:	68da      	ldr	r2, [r3, #12]
 80013aa:	4310      	orrs	r0, r2
 80013ac:	60d8      	str	r0, [r3, #12]
}
 80013ae:	4770      	bx	lr
 80013b0:	40010400 	.word	0x40010400

080013b4 <stm32_exti_set_callback>:

/**
 * @brief set & unset for the interrupt callbacks
 */
int stm32_exti_set_callback(int line, stm32_exti_callback_t cb, void *arg)
{
 80013b4:	b510      	push	{r4, lr}
	const struct device *const dev = DEVICE_DT_GET(EXTI_NODE);
	struct stm32_exti_data *data = dev->data;

	if (data->cb[line].cb) {
 80013b6:	4b07      	ldr	r3, [pc, #28]	; (80013d4 <stm32_exti_set_callback+0x20>)
{
 80013b8:	4604      	mov	r4, r0
	if (data->cb[line].cb) {
 80013ba:	f853 0030 	ldr.w	r0, [r3, r0, lsl #3]
 80013be:	b928      	cbnz	r0, 80013cc <stm32_exti_set_callback+0x18>
		return -EBUSY;
	}

	data->cb[line].cb = cb;
 80013c0:	f843 1034 	str.w	r1, [r3, r4, lsl #3]
	data->cb[line].data = arg;
 80013c4:	eb03 03c4 	add.w	r3, r3, r4, lsl #3
 80013c8:	605a      	str	r2, [r3, #4]

	return 0;
}
 80013ca:	bd10      	pop	{r4, pc}
		return -EBUSY;
 80013cc:	f06f 000f 	mvn.w	r0, #15
 80013d0:	e7fb      	b.n	80013ca <stm32_exti_set_callback+0x16>
 80013d2:	bf00      	nop
 80013d4:	2000016c 	.word	0x2000016c

080013d8 <stm32_exti_unset_callback>:
void stm32_exti_unset_callback(int line)
{
	const struct device *const dev = DEVICE_DT_GET(EXTI_NODE);
	struct stm32_exti_data *data = dev->data;

	data->cb[line].cb = NULL;
 80013d8:	4b03      	ldr	r3, [pc, #12]	; (80013e8 <stm32_exti_unset_callback+0x10>)
 80013da:	2200      	movs	r2, #0
 80013dc:	f843 2030 	str.w	r2, [r3, r0, lsl #3]
	data->cb[line].data = NULL;
 80013e0:	eb03 03c0 	add.w	r3, r3, r0, lsl #3
 80013e4:	605a      	str	r2, [r3, #4]
}
 80013e6:	4770      	bx	lr
 80013e8:	2000016c 	.word	0x2000016c

080013ec <LL_RCC_HSI_IsReady>:
  * @rmtoll CR           HSIRDY        LL_RCC_HSI_IsReady
  * @retval State of bit (1 or 0).
  */
__STATIC_INLINE uint32_t LL_RCC_HSI_IsReady(void)
{
  return ((READ_BIT(RCC->CR, RCC_CR_HSIRDY) == RCC_CR_HSIRDY) ? 1UL : 0UL);
 80013ec:	4b02      	ldr	r3, [pc, #8]	; (80013f8 <LL_RCC_HSI_IsReady+0xc>)
 80013ee:	6818      	ldr	r0, [r3, #0]
}
 80013f0:	f3c0 2080 	ubfx	r0, r0, #10, #1
 80013f4:	4770      	bx	lr
 80013f6:	bf00      	nop
 80013f8:	40021000 	.word	0x40021000

080013fc <stm32_clock_control_get_subsys_rate>:
}

static int stm32_clock_control_get_subsys_rate(const struct device *clock,
						clock_control_subsys_t sub_system,
						uint32_t *rate)
{
 80013fc:	b510      	push	{r4, lr}
	 * Get AHB Clock (= SystemCoreClock = SYSCLK/prescaler)
	 * SystemCoreClock is preferred to CONFIG_SYS_CLOCK_HW_CYCLES_PER_SEC
	 * since it will be updated after clock configuration and hence
	 * more likely to contain actual clock speed
	 */
	uint32_t ahb_clock = SystemCoreClock;
 80013fe:	4b1e      	ldr	r3, [pc, #120]	; (8001478 <stm32_clock_control_get_subsys_rate+0x7c>)
 8001400:	6818      	ldr	r0, [r3, #0]
	/* AHB3 bus exists, but w/o dedicated prescaler */
	uint32_t ahb3_clock = ahb_clock;
#endif

#if defined(STM32_SRC_PCLK)
	if (pclken->bus == STM32_SRC_PCLK) {
 8001402:	680b      	ldr	r3, [r1, #0]
 8001404:	2b07      	cmp	r3, #7
{
 8001406:	4614      	mov	r4, r2
	if (pclken->bus == STM32_SRC_PCLK) {
 8001408:	d015      	beq.n	8001436 <stm32_clock_control_get_subsys_rate+0x3a>
	}
#endif

	ARG_UNUSED(clock);

	switch (pclken->bus) {
 800140a:	2b0a      	cmp	r3, #10
 800140c:	d80a      	bhi.n	8001424 <stm32_clock_control_get_subsys_rate+0x28>
 800140e:	b193      	cbz	r3, 8001436 <stm32_clock_control_get_subsys_rate+0x3a>
 8001410:	3b01      	subs	r3, #1
 8001412:	2b09      	cmp	r3, #9
 8001414:	d80f      	bhi.n	8001436 <stm32_clock_control_get_subsys_rate+0x3a>
 8001416:	e8df f003 	tbb	[pc, r3]
 800141a:	0e2d      	.short	0x0e2d
 800141c:	160e1515 	.word	0x160e1515
 8001420:	2721190e 	.word	0x2721190e
 8001424:	2b58      	cmp	r3, #88	; 0x58
 8001426:	d00e      	beq.n	8001446 <stm32_clock_control_get_subsys_rate+0x4a>
 8001428:	d808      	bhi.n	800143c <stm32_clock_control_get_subsys_rate+0x40>
 800142a:	2b4c      	cmp	r3, #76	; 0x4c
 800142c:	d00b      	beq.n	8001446 <stm32_clock_control_get_subsys_rate+0x4a>
 800142e:	2b50      	cmp	r3, #80	; 0x50
 8001430:	d009      	beq.n	8001446 <stm32_clock_control_get_subsys_rate+0x4a>
 8001432:	2b48      	cmp	r3, #72	; 0x48
 8001434:	d007      	beq.n	8001446 <stm32_clock_control_get_subsys_rate+0x4a>
 8001436:	f06f 0085 	mvn.w	r0, #133	; 0x85
 800143a:	e006      	b.n	800144a <stm32_clock_control_get_subsys_rate+0x4e>
 800143c:	2b5c      	cmp	r3, #92	; 0x5c
 800143e:	d002      	beq.n	8001446 <stm32_clock_control_get_subsys_rate+0x4a>
 8001440:	2b60      	cmp	r3, #96	; 0x60
 8001442:	e7f7      	b.n	8001434 <stm32_clock_control_get_subsys_rate+0x38>
 8001444:	2000      	movs	r0, #0
	case STM32_CLOCK_BUS_AHB2:
#endif
#if defined(STM32_CLOCK_BUS_IOP)
	case STM32_CLOCK_BUS_IOP:
#endif
		*rate = ahb_clock;
 8001446:	6020      	str	r0, [r4, #0]
#endif
	default:
		return -ENOTSUP;
	}

	return 0;
 8001448:	2000      	movs	r0, #0
}
 800144a:	bd10      	pop	{r4, pc}
		*rate = get_pll_div_frequency(get_pllsrc_frequency(),
 800144c:	f000 f8a2 	bl	8001594 <get_pllsrc_frequency>
	return (pllsrc_freq * plln_mul) /
 8001450:	2314      	movs	r3, #20
 8001452:	4358      	muls	r0, r3
 8001454:	2307      	movs	r3, #7
 8001456:	fbb0 f0f3 	udiv	r0, r0, r3
		break;
 800145a:	e7f4      	b.n	8001446 <stm32_clock_control_get_subsys_rate+0x4a>
		*rate = get_pll_div_frequency(get_pllsrc_frequency(),
 800145c:	f000 f89a 	bl	8001594 <get_pllsrc_frequency>
	return (pllsrc_freq * plln_mul) /
 8001460:	2314      	movs	r3, #20
 8001462:	4358      	muls	r0, r3
 8001464:	0840      	lsrs	r0, r0, #1
		break;
 8001466:	e7ee      	b.n	8001446 <stm32_clock_control_get_subsys_rate+0x4a>
		*rate = get_pll_div_frequency(get_pllsrc_frequency(),
 8001468:	f000 f894 	bl	8001594 <get_pllsrc_frequency>
	return (pllsrc_freq * plln_mul) /
 800146c:	2314      	movs	r3, #20
 800146e:	4358      	muls	r0, r3
 8001470:	0880      	lsrs	r0, r0, #2
		break;
 8001472:	e7e8      	b.n	8001446 <stm32_clock_control_get_subsys_rate+0x4a>
		break;
 8001474:	4801      	ldr	r0, [pc, #4]	; (800147c <stm32_clock_control_get_subsys_rate+0x80>)
 8001476:	e7e6      	b.n	8001446 <stm32_clock_control_get_subsys_rate+0x4a>
 8001478:	2000002c 	.word	0x2000002c
 800147c:	00f42400 	.word	0x00f42400

08001480 <stm32_clock_control_init>:
 * @param dev clock device struct
 *
 * @return 0
 */
int stm32_clock_control_init(const struct device *dev)
{
 8001480:	b570      	push	{r4, r5, r6, lr}
  *         @arg @ref LL_RCC_SYSCLK_DIV_256
  *         @arg @ref LL_RCC_SYSCLK_DIV_512
  */
__STATIC_INLINE uint32_t LL_RCC_GetAHBPrescaler(void)
{
  return (uint32_t)(READ_BIT(RCC->CFGR, RCC_CFGR_HPRE));
 8001482:	4c3f      	ldr	r4, [pc, #252]	; (8001580 <stm32_clock_control_init+0x100>)

	new_flash_freq = RCC_CALC_FLASH_FREQ(CONFIG_SYS_CLOCK_HW_CYCLES_PER_SEC,
				      STM32_FLASH_PRESCALER);

	/* If freq increases, set flash latency before any clock setting */
	if (old_flash_freq < CONFIG_SYS_CLOCK_HW_CYCLES_PER_SEC) {
 8001484:	4e3f      	ldr	r6, [pc, #252]	; (8001584 <stm32_clock_control_init+0x104>)
	config_enable_default_clocks();
 8001486:	f000 f89b 	bl	80015c0 <config_enable_default_clocks>
	old_flash_freq = RCC_CALC_FLASH_FREQ(HAL_RCC_GetSysClockFreq(),
 800148a:	f000 fc03 	bl	8001c94 <HAL_RCC_GetSysClockFreq>
 800148e:	68a3      	ldr	r3, [r4, #8]
 8001490:	4a3d      	ldr	r2, [pc, #244]	; (8001588 <stm32_clock_control_init+0x108>)
 8001492:	f3c3 1303 	ubfx	r3, r3, #4, #4
 8001496:	5cd3      	ldrb	r3, [r2, r3]
 8001498:	fa20 f503 	lsr.w	r5, r0, r3
	if (old_flash_freq < CONFIG_SYS_CLOCK_HW_CYCLES_PER_SEC) {
 800149c:	42b5      	cmp	r5, r6
 800149e:	d802      	bhi.n	80014a6 <stm32_clock_control_init+0x26>
		LL_SetFlashLatency(CONFIG_SYS_CLOCK_HW_CYCLES_PER_SEC);
 80014a0:	483a      	ldr	r0, [pc, #232]	; (800158c <stm32_clock_control_init+0x10c>)
 80014a2:	f000 fc45 	bl	8001d30 <LL_SetFlashLatency>
		if (LL_RCC_HSI_IsReady() != 1) {
 80014a6:	f7ff ffa1 	bl	80013ec <LL_RCC_HSI_IsReady>
 80014aa:	2801      	cmp	r0, #1
 80014ac:	d007      	beq.n	80014be <stm32_clock_control_init+0x3e>
  SET_BIT(RCC->CR, RCC_CR_HSION);
 80014ae:	6823      	ldr	r3, [r4, #0]
 80014b0:	f443 7380 	orr.w	r3, r3, #256	; 0x100
 80014b4:	6023      	str	r3, [r4, #0]
			while (LL_RCC_HSI_IsReady() != 1) {
 80014b6:	f7ff ff99 	bl	80013ec <LL_RCC_HSI_IsReady>
 80014ba:	2801      	cmp	r0, #1
 80014bc:	d1fb      	bne.n	80014b6 <stm32_clock_control_init+0x36>
  return (uint32_t)(READ_BIT(RCC->CFGR, RCC_CFGR_SWS));
 80014be:	68a3      	ldr	r3, [r4, #8]
 80014c0:	f003 030c 	and.w	r3, r3, #12
	if (LL_RCC_GetSysClkSource() == LL_RCC_SYS_CLKSOURCE_STATUS_PLL) {
 80014c4:	2b0c      	cmp	r3, #12
 80014c6:	d11a      	bne.n	80014fe <stm32_clock_control_init+0x7e>
  MODIFY_REG(RCC->CFGR, RCC_CFGR_HPRE, Prescaler);
 80014c8:	68a3      	ldr	r3, [r4, #8]
 80014ca:	f023 03f0 	bic.w	r3, r3, #240	; 0xf0
 80014ce:	60a3      	str	r3, [r4, #8]
	if (LL_RCC_HSI_IsReady() != 1) {
 80014d0:	f7ff ff8c 	bl	80013ec <LL_RCC_HSI_IsReady>
 80014d4:	2801      	cmp	r0, #1
 80014d6:	d007      	beq.n	80014e8 <stm32_clock_control_init+0x68>
  SET_BIT(RCC->CR, RCC_CR_HSION);
 80014d8:	6823      	ldr	r3, [r4, #0]
 80014da:	f443 7380 	orr.w	r3, r3, #256	; 0x100
 80014de:	6023      	str	r3, [r4, #0]
		while (LL_RCC_HSI_IsReady() != 1) {
 80014e0:	f7ff ff84 	bl	80013ec <LL_RCC_HSI_IsReady>
 80014e4:	2801      	cmp	r0, #1
 80014e6:	d1fb      	bne.n	80014e0 <stm32_clock_control_init+0x60>
  MODIFY_REG(RCC->CFGR, RCC_CFGR_SW, Source);
 80014e8:	68a3      	ldr	r3, [r4, #8]
 80014ea:	f023 0303 	bic.w	r3, r3, #3
 80014ee:	f043 0301 	orr.w	r3, r3, #1
 80014f2:	60a3      	str	r3, [r4, #8]
  return (uint32_t)(READ_BIT(RCC->CFGR, RCC_CFGR_SWS));
 80014f4:	68a3      	ldr	r3, [r4, #8]
 80014f6:	f003 030c 	and.w	r3, r3, #12
	while (LL_RCC_GetSysClkSource() != LL_RCC_SYS_CLKSOURCE_STATUS_HSI) {
 80014fa:	2b04      	cmp	r3, #4
 80014fc:	d1fa      	bne.n	80014f4 <stm32_clock_control_init+0x74>
  * @rmtoll CR           PLLON         LL_RCC_PLL_Disable
  * @retval None
  */
__STATIC_INLINE void LL_RCC_PLL_Disable(void)
{
  CLEAR_BIT(RCC->CR, RCC_CR_PLLON);
 80014fe:	6823      	ldr	r3, [r4, #0]
 8001500:	f023 7380 	bic.w	r3, r3, #16777216	; 0x1000000
 8001504:	6023      	str	r3, [r4, #0]
	MODIFY_REG(RCC->PLLCFGR, RCC_PLLCFGR_PLLP, pllp(STM32_PLL_P_DIVISOR));
 8001506:	68e3      	ldr	r3, [r4, #12]
 8001508:	f023 5360 	bic.w	r3, r3, #939524096	; 0x38000000
 800150c:	f423 3300 	bic.w	r3, r3, #131072	; 0x20000
 8001510:	f043 5360 	orr.w	r3, r3, #939524096	; 0x38000000
 8001514:	60e3      	str	r3, [r4, #12]
	RCC_PLLP_ENABLE();
 8001516:	68e3      	ldr	r3, [r4, #12]
 8001518:	f443 3380 	orr.w	r3, r3, #65536	; 0x10000
 800151c:	60e3      	str	r3, [r4, #12]
	MODIFY_REG(RCC->PLLCFGR, RCC_PLLCFGR_PLLQ, pllq(STM32_PLL_Q_DIVISOR));
 800151e:	68e3      	ldr	r3, [r4, #12]
 8001520:	f423 03c0 	bic.w	r3, r3, #6291456	; 0x600000
 8001524:	60e3      	str	r3, [r4, #12]
	RCC_PLLQ_ENABLE();
 8001526:	68e3      	ldr	r3, [r4, #12]
 8001528:	f443 1380 	orr.w	r3, r3, #1048576	; 0x100000
 800152c:	60e3      	str	r3, [r4, #12]
	config_pll_sysclock();
 800152e:	f000 f835 	bl	800159c <config_pll_sysclock>
  SET_BIT(RCC->CR, RCC_CR_PLLON);
 8001532:	6823      	ldr	r3, [r4, #0]
 8001534:	f043 7380 	orr.w	r3, r3, #16777216	; 0x1000000
 8001538:	6023      	str	r3, [r4, #0]
  * @rmtoll CR           PLLRDY        LL_RCC_PLL_IsReady
  * @retval State of bit (1 or 0).
  */
__STATIC_INLINE uint32_t LL_RCC_PLL_IsReady(void)
{
  return ((READ_BIT(RCC->CR, RCC_CR_PLLRDY) == RCC_CR_PLLRDY) ? 1UL : 0UL);
 800153a:	6823      	ldr	r3, [r4, #0]
 800153c:	019b      	lsls	r3, r3, #6
 800153e:	d5fc      	bpl.n	800153a <stm32_clock_control_init+0xba>
  MODIFY_REG(RCC->CFGR, RCC_CFGR_HPRE, Prescaler);
 8001540:	68a3      	ldr	r3, [r4, #8]
 8001542:	f023 03f0 	bic.w	r3, r3, #240	; 0xf0
 8001546:	60a3      	str	r3, [r4, #8]
  MODIFY_REG(RCC->CFGR, RCC_CFGR_SW, Source);
 8001548:	68a3      	ldr	r3, [r4, #8]
 800154a:	f043 0303 	orr.w	r3, r3, #3
 800154e:	60a3      	str	r3, [r4, #8]
  return (uint32_t)(READ_BIT(RCC->CFGR, RCC_CFGR_SWS));
 8001550:	68a3      	ldr	r3, [r4, #8]
 8001552:	f003 030c 	and.w	r3, r3, #12
	}

#if STM32_SYSCLK_SRC_PLL
	/* Set PLL as System Clock Source */
	LL_RCC_SetSysClkSource(LL_RCC_SYS_CLKSOURCE_PLL);
	while (LL_RCC_GetSysClkSource() != LL_RCC_SYS_CLKSOURCE_STATUS_PLL) {
 8001556:	2b0c      	cmp	r3, #12
 8001558:	d1fa      	bne.n	8001550 <stm32_clock_control_init+0xd0>
		LL_RCC_SetAHBPrescaler(ahb_prescaler(STM32_CORE_PRESCALER));
	}

#if defined(FLASH_ACR_LATENCY)
	/* If freq not increased, set flash latency after all clock setting */
	if (old_flash_freq >= CONFIG_SYS_CLOCK_HW_CYCLES_PER_SEC) {
 800155a:	42b5      	cmp	r5, r6
 800155c:	d902      	bls.n	8001564 <stm32_clock_control_init+0xe4>
		LL_SetFlashLatency(CONFIG_SYS_CLOCK_HW_CYCLES_PER_SEC);
 800155e:	480b      	ldr	r0, [pc, #44]	; (800158c <stm32_clock_control_init+0x10c>)
 8001560:	f000 fbe6 	bl	8001d30 <LL_SetFlashLatency>
	}
#endif /* FLASH_ACR_LATENCY */

	SystemCoreClock = CONFIG_SYS_CLOCK_HW_CYCLES_PER_SEC;
 8001564:	4b0a      	ldr	r3, [pc, #40]	; (8001590 <stm32_clock_control_init+0x110>)
 8001566:	4a09      	ldr	r2, [pc, #36]	; (800158c <stm32_clock_control_init+0x10c>)
 8001568:	601a      	str	r2, [r3, #0]
  MODIFY_REG(RCC->CFGR, RCC_CFGR_PPRE1, Prescaler);
 800156a:	68a3      	ldr	r3, [r4, #8]
 800156c:	f423 63e0 	bic.w	r3, r3, #1792	; 0x700
 8001570:	60a3      	str	r3, [r4, #8]
  MODIFY_REG(RCC->CFGR, RCC_CFGR_PPRE2, Prescaler);
 8001572:	68a3      	ldr	r3, [r4, #8]
 8001574:	f423 5360 	bic.w	r3, r3, #14336	; 0x3800
 8001578:	60a3      	str	r3, [r4, #8]

	/* configure MCO1/MCO2 based on Kconfig */
	stm32_clock_control_mco_init();

	return 0;
}
 800157a:	2000      	movs	r0, #0
 800157c:	bd70      	pop	{r4, r5, r6, pc}
 800157e:	bf00      	nop
 8001580:	40021000 	.word	0x40021000
 8001584:	04c4b3ff 	.word	0x04c4b3ff
 8001588:	08003576 	.word	0x08003576
 800158c:	04c4b400 	.word	0x04c4b400
 8001590:	2000002c 	.word	0x2000002c

08001594 <get_pllsrc_frequency>:
#endif
	}

	__ASSERT(0, "Invalid source");
	return 0;
}
 8001594:	4800      	ldr	r0, [pc, #0]	; (8001598 <get_pllsrc_frequency+0x4>)
 8001596:	4770      	bx	lr
 8001598:	00f42400 	.word	0x00f42400

0800159c <config_pll_sysclock>:
  *         @arg @ref LL_RCC_PLLR_DIV_8
  * @retval None
  */
__STATIC_INLINE void LL_RCC_PLL_ConfigDomain_SYS(uint32_t Source, uint32_t PLLM, uint32_t PLLN, uint32_t PLLR)
{
  MODIFY_REG(RCC->PLLCFGR, RCC_PLLCFGR_PLLSRC | RCC_PLLCFGR_PLLM | RCC_PLLCFGR_PLLN | RCC_PLLCFGR_PLLR,
 800159c:	4b05      	ldr	r3, [pc, #20]	; (80015b4 <config_pll_sysclock+0x18>)
 800159e:	4906      	ldr	r1, [pc, #24]	; (80015b8 <config_pll_sysclock+0x1c>)
 80015a0:	68da      	ldr	r2, [r3, #12]
 80015a2:	4011      	ands	r1, r2
 80015a4:	4a05      	ldr	r2, [pc, #20]	; (80015bc <config_pll_sysclock+0x20>)
 80015a6:	430a      	orrs	r2, r1
 80015a8:	60da      	str	r2, [r3, #12]
  * @rmtoll PLLCFGR      PLLREN        LL_RCC_PLL_EnableDomain_SYS
  * @retval None
  */
__STATIC_INLINE void LL_RCC_PLL_EnableDomain_SYS(void)
{
  SET_BIT(RCC->PLLCFGR, RCC_PLLCFGR_PLLREN);
 80015aa:	68da      	ldr	r2, [r3, #12]
 80015ac:	f042 7280 	orr.w	r2, r2, #16777216	; 0x1000000
 80015b0:	60da      	str	r2, [r3, #12]
				    pllm(STM32_PLL_M_DIVISOR),
				    STM32_PLL_N_MULTIPLIER,
				    pllr(STM32_PLL_R_DIVISOR));

	LL_RCC_PLL_EnableDomain_SYS();
}
 80015b2:	4770      	bx	lr
 80015b4:	40021000 	.word	0x40021000
 80015b8:	f9ff808c 	.word	0xf9ff808c
 80015bc:	02001402 	.word	0x02001402

080015c0 <config_enable_default_clocks>:
  * @retval None
*/
__STATIC_INLINE void LL_APB1_GRP1_EnableClock(uint32_t Periphs)
{
  __IO uint32_t tmpreg;
  SET_BIT(RCC->APB1ENR1, Periphs);
 80015c0:	4b06      	ldr	r3, [pc, #24]	; (80015dc <config_enable_default_clocks+0x1c>)
 80015c2:	6d9a      	ldr	r2, [r3, #88]	; 0x58
 80015c4:	f042 5280 	orr.w	r2, r2, #268435456	; 0x10000000
 80015c8:	659a      	str	r2, [r3, #88]	; 0x58
  /* Delay after an RCC peripheral clock enabling */
  tmpreg = READ_BIT(RCC->APB1ENR1, Periphs);
 80015ca:	6d9b      	ldr	r3, [r3, #88]	; 0x58

/**
 * @brief Activate default clocks
 */
void config_enable_default_clocks(void)
{
 80015cc:	b082      	sub	sp, #8
 80015ce:	f003 5380 	and.w	r3, r3, #268435456	; 0x10000000
 80015d2:	9301      	str	r3, [sp, #4]
  (void)tmpreg;
 80015d4:	9b01      	ldr	r3, [sp, #4]
#endif
#if defined(CONFIG_SOC_SERIES_STM32WBX)
	/* HW semaphore Clock enable */
	LL_AHB3_GRP1_EnableClock(LL_AHB3_GRP1_PERIPH_HSEM);
#endif
}
 80015d6:	b002      	add	sp, #8
 80015d8:	4770      	bx	lr
 80015da:	bf00      	nop
 80015dc:	40021000 	.word	0x40021000

080015e0 <uart_console_init>:
 * @brief Initialize one UART as the console/debug port
 *
 * @return 0 if successful, otherwise failed.
 */
static int uart_console_init(const struct device *arg)
{
 80015e0:	b508      	push	{r3, lr}
 80015e2:	4807      	ldr	r0, [pc, #28]	; (8001600 <uart_console_init+0x20>)
 80015e4:	f001 fbf9 	bl	8002dda <z_device_is_ready>

	ARG_UNUSED(arg);

	if (!device_is_ready(uart_console_dev)) {
 80015e8:	b138      	cbz	r0, 80015fa <uart_console_init+0x1a>
	__stdout_hook_install(console_out);
 80015ea:	4806      	ldr	r0, [pc, #24]	; (8001604 <uart_console_init+0x24>)
 80015ec:	f7ff fe72 	bl	80012d4 <__stdout_hook_install>
	__printk_hook_install(console_out);
 80015f0:	4804      	ldr	r0, [pc, #16]	; (8001604 <uart_console_init+0x24>)
 80015f2:	f7fe ff6d 	bl	80004d0 <__printk_hook_install>
		return -ENODEV;
	}

	uart_console_hook_install();

	return 0;
 80015f6:	2000      	movs	r0, #0
}
 80015f8:	bd08      	pop	{r3, pc}
		return -ENODEV;
 80015fa:	f06f 0012 	mvn.w	r0, #18
 80015fe:	e7fb      	b.n	80015f8 <uart_console_init+0x18>
 8001600:	08003064 	.word	0x08003064
 8001604:	08001609 	.word	0x08001609

08001608 <console_out>:
	if ('\n' == c) {
 8001608:	280a      	cmp	r0, #10
{
 800160a:	b538      	push	{r3, r4, r5, lr}
 800160c:	4d07      	ldr	r5, [pc, #28]	; (800162c <console_out+0x24>)
 800160e:	4604      	mov	r4, r0
	if ('\n' == c) {
 8001610:	d104      	bne.n	800161c <console_out+0x14>
					unsigned char out_char)
{
	const struct uart_driver_api *api =
		(const struct uart_driver_api *)dev->api;

	api->poll_out(dev, out_char);
 8001612:	68ab      	ldr	r3, [r5, #8]
 8001614:	210d      	movs	r1, #13
 8001616:	685b      	ldr	r3, [r3, #4]
 8001618:	4628      	mov	r0, r5
 800161a:	4798      	blx	r3
 800161c:	68ab      	ldr	r3, [r5, #8]
 800161e:	4803      	ldr	r0, [pc, #12]	; (800162c <console_out+0x24>)
 8001620:	685b      	ldr	r3, [r3, #4]
 8001622:	b2e1      	uxtb	r1, r4
 8001624:	4798      	blx	r3
}
 8001626:	4620      	mov	r0, r4
 8001628:	bd38      	pop	{r3, r4, r5, pc}
 800162a:	bf00      	nop
 800162c:	08003064 	.word	0x08003064

08001630 <gpio_stm32_init>:
 * @param dev GPIO device struct
 *
 * @return 0
 */
static int gpio_stm32_init(const struct device *dev)
{
 8001630:	b538      	push	{r3, r4, r5, lr}
	struct gpio_stm32_data *data = dev->data;
 8001632:	6903      	ldr	r3, [r0, #16]
{
 8001634:	4604      	mov	r4, r0
	int ret;

	data->dev = dev;
 8001636:	6058      	str	r0, [r3, #4]
 8001638:	4d08      	ldr	r5, [pc, #32]	; (800165c <gpio_stm32_init+0x2c>)
 800163a:	4628      	mov	r0, r5
 800163c:	f001 fbcd 	bl	8002dda <z_device_is_ready>

	if (!device_is_ready(DEVICE_DT_GET(STM32_CLOCK_CONTROL_NODE))) {
 8001640:	b140      	cbz	r0, 8001654 <gpio_stm32_init+0x24>
					(clock_control_subsys_t *)&cfg->pclken);
 8001642:	6861      	ldr	r1, [r4, #4]
				   clock_control_subsys_t sys)
{
	const struct clock_control_driver_api *api =
		(const struct clock_control_driver_api *)dev->api;

	return api->on(dev, sys);
 8001644:	68ab      	ldr	r3, [r5, #8]
 8001646:	310c      	adds	r1, #12
 8001648:	681b      	ldr	r3, [r3, #0]
 800164a:	4628      	mov	r0, r5
 800164c:	4798      	blx	r3
	LL_PWR_EnableVddIO2();
	z_stm32_hsem_unlock(CFG_HW_RCC_SEMID);
#endif
	/* enable port clock (if runtime PM is not enabled) */
	ret = gpio_stm32_clock_request(dev, !IS_ENABLED(CONFIG_PM_DEVICE_RUNTIME));
	if (ret < 0) {
 800164e:	ea00 70e0 	and.w	r0, r0, r0, asr #31

	pm_device_init_suspended(dev);
	(void)pm_device_runtime_enable(dev);

	return 0;
}
 8001652:	bd38      	pop	{r3, r4, r5, pc}
		return -ENODEV;
 8001654:	f06f 0012 	mvn.w	r0, #18
 8001658:	e7fb      	b.n	8001652 <gpio_stm32_init+0x22>
 800165a:	bf00      	nop
 800165c:	08002fd4 	.word	0x08002fd4

08001660 <gpio_stm32_pin_interrupt_configure>:
{
 8001660:	b5f7      	push	{r0, r1, r2, r4, r5, r6, r7, lr}
 8001662:	4617      	mov	r7, r2
	if (mode == GPIO_INT_MODE_DISABLED) {
 8001664:	f5b7 1f00 	cmp.w	r7, #2097152	; 0x200000
	const struct gpio_stm32_config *cfg = dev->config;
 8001668:	6846      	ldr	r6, [r0, #4]
	struct gpio_stm32_data *data = dev->data;
 800166a:	6902      	ldr	r2, [r0, #16]
{
 800166c:	460c      	mov	r4, r1
 800166e:	461d      	mov	r5, r3
	if (mode == GPIO_INT_MODE_DISABLED) {
 8001670:	d124      	bne.n	80016bc <gpio_stm32_pin_interrupt_configure+0x5c>
	return (0xF << ((pin % 4 * 4) + 16)) | (pin / 4);
 8001672:	f001 0203 	and.w	r2, r1, #3
 8001676:	3204      	adds	r2, #4
 8001678:	0092      	lsls	r2, r2, #2
 800167a:	230f      	movs	r3, #15
 800167c:	4093      	lsls	r3, r2
 800167e:	ea43 0391 	orr.w	r3, r3, r1, lsr #2
  *
  *         (*) value not defined in all devices
  */
__STATIC_INLINE uint32_t LL_SYSCFG_GetEXTISource(uint32_t Line)
{
  return (uint32_t)(READ_BIT(SYSCFG->EXTICR[Line & 0xFFU], (Line >> 16U)) >> POSITION_VAL(Line >> 16U));
 8001682:	b2da      	uxtb	r2, r3
 8001684:	4933      	ldr	r1, [pc, #204]	; (8001754 <gpio_stm32_pin_interrupt_configure+0xf4>)
 8001686:	3202      	adds	r2, #2
 8001688:	f851 2022 	ldr.w	r2, [r1, r2, lsl #2]
 800168c:	0c19      	lsrs	r1, r3, #16
 800168e:	ea02 4313 	and.w	r3, r2, r3, lsr #16
   __ASM ("rbit %0, %1" : "=r" (result) : "r" (value) );
 8001692:	fa91 f2a1 	rbit	r2, r1
  return __builtin_clz(value);
 8001696:	fab2 f282 	clz	r2, r2
 800169a:	40d3      	lsrs	r3, r2
		if (gpio_stm32_get_exti_source(pin) == cfg->port) {
 800169c:	68b2      	ldr	r2, [r6, #8]
 800169e:	429a      	cmp	r2, r3
 80016a0:	d109      	bne.n	80016b6 <gpio_stm32_pin_interrupt_configure+0x56>
			stm32_exti_disable(pin);
 80016a2:	4620      	mov	r0, r4
 80016a4:	f7ff fe4a 	bl	800133c <stm32_exti_disable>
			stm32_exti_unset_callback(pin);
 80016a8:	4620      	mov	r0, r4
 80016aa:	f7ff fe95 	bl	80013d8 <stm32_exti_unset_callback>
			stm32_exti_trigger(pin, STM32_EXTI_TRIG_NONE);
 80016ae:	2100      	movs	r1, #0
 80016b0:	4620      	mov	r0, r4
 80016b2:	f7ff fe4f 	bl	8001354 <stm32_exti_trigger>
	int err = 0;
 80016b6:	2000      	movs	r0, #0
}
 80016b8:	b003      	add	sp, #12
 80016ba:	bdf0      	pop	{r4, r5, r6, r7, pc}
	if (mode == GPIO_INT_MODE_LEVEL) {
 80016bc:	f5b7 0f80 	cmp.w	r7, #4194304	; 0x400000
 80016c0:	d041      	beq.n	8001746 <gpio_stm32_pin_interrupt_configure+0xe6>
	if (stm32_exti_set_callback(pin, gpio_stm32_isr, data) != 0) {
 80016c2:	4925      	ldr	r1, [pc, #148]	; (8001758 <gpio_stm32_pin_interrupt_configure+0xf8>)
 80016c4:	4620      	mov	r0, r4
 80016c6:	f7ff fe75 	bl	80013b4 <stm32_exti_set_callback>
 80016ca:	2800      	cmp	r0, #0
 80016cc:	d13e      	bne.n	800174c <gpio_stm32_pin_interrupt_configure+0xec>
	struct stm32_pclken pclken = {
 80016ce:	4a23      	ldr	r2, [pc, #140]	; (800175c <gpio_stm32_pin_interrupt_configure+0xfc>)
	gpio_stm32_enable_int(cfg->port, pin);
 80016d0:	68b6      	ldr	r6, [r6, #8]
	struct stm32_pclken pclken = {
 80016d2:	e892 0003 	ldmia.w	r2, {r0, r1}
 80016d6:	466b      	mov	r3, sp
 80016d8:	e883 0003 	stmia.w	r3, {r0, r1}
 80016dc:	4820      	ldr	r0, [pc, #128]	; (8001760 <gpio_stm32_pin_interrupt_configure+0x100>)
 80016de:	6882      	ldr	r2, [r0, #8]
 80016e0:	4619      	mov	r1, r3
 80016e2:	6812      	ldr	r2, [r2, #0]
 80016e4:	4790      	blx	r2
	if (ret != 0) {
 80016e6:	b9c0      	cbnz	r0, 800171a <gpio_stm32_pin_interrupt_configure+0xba>
	return (0xF << ((pin % 4 * 4) + 16)) | (pin / 4);
 80016e8:	f004 0303 	and.w	r3, r4, #3
 80016ec:	3304      	adds	r3, #4
 80016ee:	009b      	lsls	r3, r3, #2
 80016f0:	220f      	movs	r2, #15
 80016f2:	409a      	lsls	r2, r3
 80016f4:	ea42 0294 	orr.w	r2, r2, r4, lsr #2
  MODIFY_REG(SYSCFG->EXTICR[Line & 0xFFU], (Line >> 16U), Port << POSITION_VAL((Line >> 16U)));
 80016f8:	b2d3      	uxtb	r3, r2
 80016fa:	009b      	lsls	r3, r3, #2
 80016fc:	f103 4380 	add.w	r3, r3, #1073741824	; 0x40000000
 8001700:	f503 3380 	add.w	r3, r3, #65536	; 0x10000
 8001704:	0c11      	lsrs	r1, r2, #16
 8001706:	6898      	ldr	r0, [r3, #8]
 8001708:	ea20 4012 	bic.w	r0, r0, r2, lsr #16
   __ASM ("rbit %0, %1" : "=r" (result) : "r" (value) );
 800170c:	fa91 f2a1 	rbit	r2, r1
  return __builtin_clz(value);
 8001710:	fab2 f282 	clz	r2, r2
 8001714:	4096      	lsls	r6, r2
 8001716:	4306      	orrs	r6, r0
 8001718:	609e      	str	r6, [r3, #8]
	switch (trig) {
 800171a:	f1b5 6f80 	cmp.w	r5, #67108864	; 0x4000000
 800171e:	d00e      	beq.n	800173e <gpio_stm32_pin_interrupt_configure+0xde>
 8001720:	f1b5 6fc0 	cmp.w	r5, #100663296	; 0x6000000
 8001724:	d00d      	beq.n	8001742 <gpio_stm32_pin_interrupt_configure+0xe2>
 8001726:	f105 437e 	add.w	r3, r5, #4261412864	; 0xfe000000
 800172a:	4259      	negs	r1, r3
 800172c:	4159      	adcs	r1, r3
 800172e:	0049      	lsls	r1, r1, #1
	stm32_exti_trigger(pin, edge);
 8001730:	4620      	mov	r0, r4
 8001732:	f7ff fe0f 	bl	8001354 <stm32_exti_trigger>
	stm32_exti_enable(pin);
 8001736:	4620      	mov	r0, r4
 8001738:	f7ff fdf2 	bl	8001320 <stm32_exti_enable>
 800173c:	e7bb      	b.n	80016b6 <gpio_stm32_pin_interrupt_configure+0x56>
		edge = STM32_EXTI_TRIG_RISING;
 800173e:	2101      	movs	r1, #1
 8001740:	e7f6      	b.n	8001730 <gpio_stm32_pin_interrupt_configure+0xd0>
		edge = STM32_EXTI_TRIG_BOTH;
 8001742:	2103      	movs	r1, #3
 8001744:	e7f4      	b.n	8001730 <gpio_stm32_pin_interrupt_configure+0xd0>
		err = -ENOTSUP;
 8001746:	f06f 0085 	mvn.w	r0, #133	; 0x85
 800174a:	e7b5      	b.n	80016b8 <gpio_stm32_pin_interrupt_configure+0x58>
		err = -EBUSY;
 800174c:	f06f 000f 	mvn.w	r0, #15
	return err;
 8001750:	e7b2      	b.n	80016b8 <gpio_stm32_pin_interrupt_configure+0x58>
 8001752:	bf00      	nop
 8001754:	40010000 	.word	0x40010000
 8001758:	08002bcb 	.word	0x08002bcb
 800175c:	08003354 	.word	0x08003354
 8001760:	08002fd4 	.word	0x08002fd4

08001764 <uart_stm32_init>:
 * @param dev UART device struct
 *
 * @return 0
 */
static int uart_stm32_init(const struct device *dev)
{
 8001764:	b5f7      	push	{r0, r1, r2, r4, r5, r6, r7, lr}
	const struct uart_stm32_config *config = dev->config;
	struct uart_stm32_data *data = dev->data;
 8001766:	6907      	ldr	r7, [r0, #16]
	const struct uart_stm32_config *config = dev->config;
 8001768:	6844      	ldr	r4, [r0, #4]
{
 800176a:	4606      	mov	r6, r0
	data->clock = clk;
 800176c:	4841      	ldr	r0, [pc, #260]	; (8001874 <uart_stm32_init+0x110>)
 800176e:	6078      	str	r0, [r7, #4]
 8001770:	f001 fb33 	bl	8002dda <z_device_is_ready>
	uint32_t ll_datawidth;
	int err;

	__uart_stm32_get_clock(dev);

	if (!device_is_ready(data->clock)) {
 8001774:	2800      	cmp	r0, #0
 8001776:	d079      	beq.n	800186c <uart_stm32_init+0x108>
		LOG_ERR("clock control device not ready");
		return -ENODEV;
	}

	/* enable clock */
	err = clock_control_on(data->clock, (clock_control_subsys_t)&config->pclken[0]);
 8001778:	6878      	ldr	r0, [r7, #4]
 800177a:	6861      	ldr	r1, [r4, #4]
 800177c:	6883      	ldr	r3, [r0, #8]
 800177e:	681b      	ldr	r3, [r3, #0]
 8001780:	4798      	blx	r3
	if (err != 0) {
 8001782:	4605      	mov	r5, r0
 8001784:	2800      	cmp	r0, #0
 8001786:	d169      	bne.n	800185c <uart_stm32_init+0xf8>
				      uint8_t id)
{
	int ret;
	const struct pinctrl_state *state;

	ret = pinctrl_lookup_state(config, id, &state);
 8001788:	4601      	mov	r1, r0
 800178a:	aa01      	add	r2, sp, #4
 800178c:	69a0      	ldr	r0, [r4, #24]
 800178e:	f001 fb0d 	bl	8002dac <pinctrl_lookup_state>
	if (ret < 0) {
 8001792:	2800      	cmp	r0, #0
 8001794:	da01      	bge.n	800179a <uart_stm32_init+0x36>
 8001796:	4605      	mov	r5, r0
 8001798:	e060      	b.n	800185c <uart_stm32_init+0xf8>
		return ret;
	}

	return pinctrl_apply_state_direct(config, state);
 800179a:	9b01      	ldr	r3, [sp, #4]
	return pinctrl_configure_pins(state->pins, state->pin_cnt, reg);
 800179c:	462a      	mov	r2, r5
 800179e:	7919      	ldrb	r1, [r3, #4]
 80017a0:	6818      	ldr	r0, [r3, #0]
 80017a2:	f000 fa31 	bl	8001c08 <pinctrl_configure_pins>
		}
	}

	/* Configure dt provided device signals when available */
	err = pinctrl_apply_state(config->pcfg, PINCTRL_STATE_DEFAULT);
	if (err < 0) {
 80017a6:	2800      	cmp	r0, #0
 80017a8:	dbf5      	blt.n	8001796 <uart_stm32_init+0x32>
		return err;
	}

	LL_USART_Disable(config->usart);
 80017aa:	6822      	ldr	r2, [r4, #0]
  * @param  USARTx USART Instance
  * @retval None
  */
__STATIC_INLINE void LL_USART_Disable(USART_TypeDef *USARTx)
{
  CLEAR_BIT(USARTx->CR1, USART_CR1_UE);
 80017ac:	6813      	ldr	r3, [r2, #0]
 80017ae:	f023 0301 	bic.w	r3, r3, #1
 80017b2:	6013      	str	r3, [r2, #0]

	/* TX/RX direction */
	LL_USART_SetTransferDirection(config->usart,
 80017b4:	6821      	ldr	r1, [r4, #0]
   __ASM volatile ("ldrex %0, %1" : "=r" (result) : "Q" (*addr) );
 80017b6:	e851 3f00 	ldrex	r3, [r1]
  *         @arg @ref LL_USART_DIRECTION_TX_RX
  * @retval None
  */
__STATIC_INLINE void LL_USART_SetTransferDirection(USART_TypeDef *USARTx, uint32_t TransferDirection)
{
  ATOMIC_MODIFY_REG(USARTx->CR1, USART_CR1_RE | USART_CR1_TE, TransferDirection);
 80017ba:	f043 030c 	orr.w	r3, r3, #12
   __ASM volatile ("strex %0, %2, %1" : "=&r" (result), "=Q" (*addr) : "r" (value) );
 80017be:	e841 3200 	strex	r2, r3, [r1]
 80017c2:	2a00      	cmp	r2, #0
 80017c4:	d1f7      	bne.n	80017b6 <uart_stm32_init+0x52>
				      LL_USART_DIRECTION_TX_RX);

	/* Determine the datawidth and parity. If we use other parity than
	 * 'none' we must use datawidth = 9 (to get 8 databit + 1 parity bit).
	 */
	if (config->parity == 2) {
 80017c6:	6923      	ldr	r3, [r4, #16]
 80017c8:	2b02      	cmp	r3, #2
 80017ca:	d04a      	beq.n	8001862 <uart_stm32_init+0xfe>
		ll_parity = LL_USART_PARITY_EVEN;
		ll_datawidth = LL_USART_DATAWIDTH_9B;
	} else if (config->parity == 1) {
		/* 8 databit, 1 parity bit, parity odd */
		ll_parity = LL_USART_PARITY_ODD;
		ll_datawidth = LL_USART_DATAWIDTH_9B;
 80017cc:	2b01      	cmp	r3, #1
 80017ce:	bf12      	itee	ne
 80017d0:	2000      	movne	r0, #0
 80017d2:	f44f 5080 	moveq.w	r0, #4096	; 0x1000
 80017d6:	f44f 62c0 	moveq.w	r2, #1536	; 0x600
		ll_parity = LL_USART_PARITY_NONE;
		ll_datawidth = LL_USART_DATAWIDTH_8B;
	}

	/* Set datawidth and parity, 1 start bit, 1 stop bit  */
	LL_USART_ConfigCharacter(config->usart,
 80017da:	6821      	ldr	r1, [r4, #0]
  * @retval None
  */
__STATIC_INLINE void LL_USART_ConfigCharacter(USART_TypeDef *USARTx, uint32_t DataWidth, uint32_t Parity,
                                              uint32_t StopBits)
{
  MODIFY_REG(USARTx->CR1, USART_CR1_PS | USART_CR1_PCE | USART_CR1_M, Parity | DataWidth);
 80017dc:	680b      	ldr	r3, [r1, #0]
 80017de:	f023 5380 	bic.w	r3, r3, #268435456	; 0x10000000
 80017e2:	f423 53b0 	bic.w	r3, r3, #5632	; 0x1600
 80017e6:	4310      	orrs	r0, r2
 80017e8:	4303      	orrs	r3, r0
 80017ea:	600b      	str	r3, [r1, #0]
  MODIFY_REG(USARTx->CR2, USART_CR2_STOP, StopBits);
 80017ec:	684b      	ldr	r3, [r1, #4]
 80017ee:	f423 5340 	bic.w	r3, r3, #12288	; 0x3000
 80017f2:	604b      	str	r3, [r1, #4]
				 ll_datawidth,
				 ll_parity,
				 LL_USART_STOPBITS_1);

	if (config->hw_flow_control) {
 80017f4:	7b23      	ldrb	r3, [r4, #12]
 80017f6:	b12b      	cbz	r3, 8001804 <uart_stm32_init+0xa0>
	LL_USART_SetHWFlowCtrl(config->usart, hwctrl);
 80017f8:	6873      	ldr	r3, [r6, #4]
 80017fa:	681a      	ldr	r2, [r3, #0]
  *         @arg @ref LL_USART_HWCONTROL_RTS_CTS
  * @retval None
  */
__STATIC_INLINE void LL_USART_SetHWFlowCtrl(USART_TypeDef *USARTx, uint32_t HardwareFlowControl)
{
  MODIFY_REG(USARTx->CR3, USART_CR3_RTSE | USART_CR3_CTSE, HardwareFlowControl);
 80017fc:	6893      	ldr	r3, [r2, #8]
 80017fe:	f443 7340 	orr.w	r3, r3, #768	; 0x300
 8001802:	6093      	str	r3, [r2, #8]
		uart_stm32_set_hwctrl(dev, LL_USART_HWCONTROL_RTS_CTS);
	}

	/* Set the default baudrate */
	uart_stm32_set_baudrate(dev, data->baud_rate);
 8001804:	6839      	ldr	r1, [r7, #0]
 8001806:	4630      	mov	r0, r6
 8001808:	f001 fa0b 	bl	8002c22 <uart_stm32_set_baudrate>

	/* Enable the single wire / half-duplex mode */
	if (config->single_wire) {
 800180c:	7d23      	ldrb	r3, [r4, #20]
 800180e:	b123      	cbz	r3, 800181a <uart_stm32_init+0xb6>
		LL_USART_EnableHalfDuplex(config->usart);
 8001810:	6822      	ldr	r2, [r4, #0]
  * @param  USARTx USART Instance
  * @retval None
  */
__STATIC_INLINE void LL_USART_EnableHalfDuplex(USART_TypeDef *USARTx)
{
  SET_BIT(USARTx->CR3, USART_CR3_HDSEL);
 8001812:	6893      	ldr	r3, [r2, #8]
 8001814:	f043 0308 	orr.w	r3, r3, #8
 8001818:	6093      	str	r3, [r2, #8]
	}

#ifdef LL_USART_TXRX_SWAPPED
	if (config->tx_rx_swap) {
 800181a:	7d63      	ldrb	r3, [r4, #21]
 800181c:	b123      	cbz	r3, 8001828 <uart_stm32_init+0xc4>
		LL_USART_SetTXRXSwap(config->usart, LL_USART_TXRX_SWAPPED);
 800181e:	6822      	ldr	r2, [r4, #0]
  MODIFY_REG(USARTx->CR2, USART_CR2_SWAP, SwapConfig);
 8001820:	6853      	ldr	r3, [r2, #4]
 8001822:	f443 4300 	orr.w	r3, r3, #32768	; 0x8000
 8001826:	6053      	str	r3, [r2, #4]
	}
#endif

#ifdef LL_USART_RXPIN_LEVEL_INVERTED
	if (config->rx_invert) {
 8001828:	7da3      	ldrb	r3, [r4, #22]
 800182a:	b123      	cbz	r3, 8001836 <uart_stm32_init+0xd2>
		LL_USART_SetRXPinLevel(config->usart, LL_USART_RXPIN_LEVEL_INVERTED);
 800182c:	6822      	ldr	r2, [r4, #0]
  MODIFY_REG(USARTx->CR2, USART_CR2_RXINV, PinInvMethod);
 800182e:	6853      	ldr	r3, [r2, #4]
 8001830:	f443 3380 	orr.w	r3, r3, #65536	; 0x10000
 8001834:	6053      	str	r3, [r2, #4]
	}
#endif

#ifdef LL_USART_TXPIN_LEVEL_INVERTED
	if (config->tx_invert) {
 8001836:	7de3      	ldrb	r3, [r4, #23]
 8001838:	b123      	cbz	r3, 8001844 <uart_stm32_init+0xe0>
		LL_USART_SetTXPinLevel(config->usart, LL_USART_TXPIN_LEVEL_INVERTED);
 800183a:	6822      	ldr	r2, [r4, #0]
  MODIFY_REG(USARTx->CR2, USART_CR2_TXINV, PinInvMethod);
 800183c:	6853      	ldr	r3, [r2, #4]
 800183e:	f443 3300 	orr.w	r3, r3, #131072	; 0x20000
 8001842:	6053      	str	r3, [r2, #4]
	}
#endif

	LL_USART_Enable(config->usart);
 8001844:	6822      	ldr	r2, [r4, #0]
  SET_BIT(USARTx->CR1, USART_CR1_UE);
 8001846:	6813      	ldr	r3, [r2, #0]
 8001848:	f043 0301 	orr.w	r3, r3, #1
 800184c:	6013      	str	r3, [r2, #0]

#ifdef USART_ISR_TEACK
	/* Wait until TEACK flag is set */
	while (!(LL_USART_IsActiveFlag_TEACK(config->usart))) {
 800184e:	6823      	ldr	r3, [r4, #0]
  * @param  USARTx USART Instance
  * @retval State of bit (1 or 0).
  */
__STATIC_INLINE uint32_t LL_USART_IsActiveFlag_TEACK(const USART_TypeDef *USARTx)
{
  return ((READ_BIT(USARTx->ISR, USART_ISR_TEACK) == (USART_ISR_TEACK)) ? 1UL : 0UL);
 8001850:	69da      	ldr	r2, [r3, #28]
 8001852:	0291      	lsls	r1, r2, #10
 8001854:	d5fc      	bpl.n	8001850 <uart_stm32_init+0xec>
  * @param  USARTx USART Instance
  * @retval State of bit (1 or 0).
  */
__STATIC_INLINE uint32_t LL_USART_IsActiveFlag_REACK(const USART_TypeDef *USARTx)
{
  return ((READ_BIT(USARTx->ISR, USART_ISR_REACK) == (USART_ISR_REACK)) ? 1UL : 0UL);
 8001856:	69da      	ldr	r2, [r3, #28]
 8001858:	0252      	lsls	r2, r2, #9
 800185a:	d5fc      	bpl.n	8001856 <uart_stm32_init+0xf2>
#ifdef CONFIG_UART_ASYNC_API
	return uart_stm32_async_init(dev);
#else
	return 0;
#endif
}
 800185c:	4628      	mov	r0, r5
 800185e:	b003      	add	sp, #12
 8001860:	bdf0      	pop	{r4, r5, r6, r7, pc}
		ll_datawidth = LL_USART_DATAWIDTH_9B;
 8001862:	f44f 5080 	mov.w	r0, #4096	; 0x1000
		ll_parity = LL_USART_PARITY_EVEN;
 8001866:	f44f 6280 	mov.w	r2, #1024	; 0x400
 800186a:	e7b6      	b.n	80017da <uart_stm32_init+0x76>
		return -ENODEV;
 800186c:	f06f 0512 	mvn.w	r5, #18
 8001870:	e7f4      	b.n	800185c <uart_stm32_init+0xf8>
 8001872:	bf00      	nop
 8001874:	08002fd4 	.word	0x08002fd4

08001878 <uart_stm32_configure>:
{
 8001878:	e92d 41f0 	stmdb	sp!, {r4, r5, r6, r7, r8, lr}
	const uint32_t parity = uart_stm32_cfg2ll_parity(cfg->parity);
 800187c:	790b      	ldrb	r3, [r1, #4]
	const struct uart_stm32_config *config = dev->config;
 800187e:	6845      	ldr	r5, [r0, #4]
	struct uart_stm32_data *data = dev->data;
 8001880:	6906      	ldr	r6, [r0, #16]
	switch (parity) {
 8001882:	2b01      	cmp	r3, #1
{
 8001884:	460c      	mov	r4, r1
	switch (parity) {
 8001886:	f000 8085 	beq.w	8001994 <uart_stm32_configure+0x11c>
 800188a:	1e9a      	subs	r2, r3, #2
 800188c:	4251      	negs	r1, r2
 800188e:	4151      	adcs	r1, r2
 8001890:	0289      	lsls	r1, r1, #10
	const uint32_t stopbits = uart_stm32_cfg2ll_stopbits(cfg->stop_bits);
 8001892:	f894 c005 	ldrb.w	ip, [r4, #5]
	const uint32_t databits = uart_stm32_cfg2ll_databits(cfg->data_bits,
 8001896:	f894 8006 	ldrb.w	r8, [r4, #6]
 800189a:	f1bc 0f02 	cmp.w	ip, #2
 800189e:	bf96      	itet	ls
 80018a0:	4a62      	ldrls	r2, [pc, #392]	; (8001a2c <uart_stm32_configure+0x1b4>)
	const uint32_t stopbits = uart_stm32_cfg2ll_stopbits(cfg->stop_bits);
 80018a2:	f44f 5700 	movhi.w	r7, #8192	; 0x2000
 80018a6:	f832 701c 	ldrhls.w	r7, [r2, ip, lsl #1]
	const uint32_t flowctrl = uart_stm32_cfg2ll_hwctrl(cfg->flow_ctrl);
 80018aa:	79e2      	ldrb	r2, [r4, #7]
	switch (db) {
 80018ac:	f1b8 0f02 	cmp.w	r8, #2
 80018b0:	d073      	beq.n	800199a <uart_stm32_configure+0x122>
 80018b2:	f1b8 0f04 	cmp.w	r8, #4
 80018b6:	f000 8099 	beq.w	80019ec <uart_stm32_configure+0x174>
		if (p == UART_CFG_PARITY_NONE) {
 80018ba:	2b00      	cmp	r3, #0
 80018bc:	d17a      	bne.n	80019b4 <uart_stm32_configure+0x13c>
	if (fc == UART_CFG_FLOW_CTRL_RTS_CTS) {
 80018be:	2a01      	cmp	r2, #1
 80018c0:	f02c 0c02 	bic.w	ip, ip, #2
 80018c4:	f040 80a3 	bne.w	8001a0e <uart_stm32_configure+0x196>
	if (cfg->stop_bits == UART_CFG_STOP_BITS_0_5) {
 80018c8:	f1bc 0f00 	cmp.w	ip, #0
 80018cc:	f000 808e 	beq.w	80019ec <uart_stm32_configure+0x174>
	if ((cfg->data_bits == UART_CFG_DATA_BITS_5) ||
 80018d0:	f1b8 0f01 	cmp.w	r8, #1
 80018d4:	f240 808a 	bls.w	80019ec <uart_stm32_configure+0x174>
		return LL_USART_HWCONTROL_RTS_CTS;
 80018d8:	f44f 7e40 	mov.w	lr, #768	; 0x300
		if (!IS_UART_HWFLOW_INSTANCE(config->usart) ||
 80018dc:	f8d5 c000 	ldr.w	ip, [r5]
	if (cfg->flow_ctrl != UART_CFG_FLOW_CTRL_NONE) {
 80018e0:	b16a      	cbz	r2, 80018fe <uart_stm32_configure+0x86>
		if (!IS_UART_HWFLOW_INSTANCE(config->usart) ||
 80018e2:	f8df 814c 	ldr.w	r8, [pc, #332]	; 8001a30 <uart_stm32_configure+0x1b8>
 80018e6:	45c4      	cmp	ip, r8
 80018e8:	d007      	beq.n	80018fa <uart_stm32_configure+0x82>
 80018ea:	f5a8 4874 	sub.w	r8, r8, #62464	; 0xf400
 80018ee:	45c4      	cmp	ip, r8
 80018f0:	d003      	beq.n	80018fa <uart_stm32_configure+0x82>
 80018f2:	f508 5870 	add.w	r8, r8, #15360	; 0x3c00
 80018f6:	45c4      	cmp	ip, r8
 80018f8:	d178      	bne.n	80019ec <uart_stm32_configure+0x174>
 80018fa:	2a01      	cmp	r2, #1
 80018fc:	d176      	bne.n	80019ec <uart_stm32_configure+0x174>
  CLEAR_BIT(USARTx->CR1, USART_CR1_UE);
 80018fe:	f8dc 2000 	ldr.w	r2, [ip]
 8001902:	f022 0201 	bic.w	r2, r2, #1
 8001906:	f8cc 2000 	str.w	r2, [ip]
	return LL_USART_GetParity(config->usart);
 800190a:	6842      	ldr	r2, [r0, #4]
 800190c:	f8d2 c000 	ldr.w	ip, [r2]
  return (uint32_t)(READ_BIT(USARTx->CR1, USART_CR1_PS | USART_CR1_PCE));
 8001910:	f8dc 2000 	ldr.w	r2, [ip]
 8001914:	f402 62c0 	and.w	r2, r2, #1536	; 0x600
	if (parity != uart_stm32_get_parity(dev)) {
 8001918:	4291      	cmp	r1, r2
  MODIFY_REG(USARTx->CR1, USART_CR1_PS | USART_CR1_PCE, Parity);
 800191a:	bf1f      	itttt	ne
 800191c:	f8dc 2000 	ldrne.w	r2, [ip]
 8001920:	f422 62c0 	bicne.w	r2, r2, #1536	; 0x600
 8001924:	430a      	orrne	r2, r1
 8001926:	f8cc 2000 	strne.w	r2, [ip]
	return LL_USART_GetStopBitsLength(config->usart);
 800192a:	6842      	ldr	r2, [r0, #4]
 800192c:	6811      	ldr	r1, [r2, #0]
  return (uint32_t)(READ_BIT(USARTx->CR2, USART_CR2_STOP));
 800192e:	684a      	ldr	r2, [r1, #4]
 8001930:	f402 5240 	and.w	r2, r2, #12288	; 0x3000
	if (stopbits != uart_stm32_get_stopbits(dev)) {
 8001934:	4297      	cmp	r7, r2
  MODIFY_REG(USARTx->CR2, USART_CR2_STOP, StopBits);
 8001936:	bf1f      	itttt	ne
 8001938:	684a      	ldrne	r2, [r1, #4]
 800193a:	f422 5240 	bicne.w	r2, r2, #12288	; 0x3000
 800193e:	433a      	orrne	r2, r7
 8001940:	604a      	strne	r2, [r1, #4]
	return LL_USART_GetDataWidth(config->usart);
 8001942:	6842      	ldr	r2, [r0, #4]
 8001944:	6811      	ldr	r1, [r2, #0]
  return (uint32_t)(READ_BIT(USARTx->CR1, USART_CR1_M));
 8001946:	680a      	ldr	r2, [r1, #0]
 8001948:	f002 2210 	and.w	r2, r2, #268439552	; 0x10001000
	if (databits != uart_stm32_get_databits(dev)) {
 800194c:	429a      	cmp	r2, r3
  MODIFY_REG(USARTx->CR1, USART_CR1_M, DataWidth);
 800194e:	bf1f      	itttt	ne
 8001950:	680a      	ldrne	r2, [r1, #0]
 8001952:	f022 2210 	bicne.w	r2, r2, #268439552	; 0x10001000
 8001956:	4313      	orrne	r3, r2
 8001958:	600b      	strne	r3, [r1, #0]
	return LL_USART_GetHWFlowCtrl(config->usart);
 800195a:	6843      	ldr	r3, [r0, #4]
 800195c:	681a      	ldr	r2, [r3, #0]
  return (uint32_t)(READ_BIT(USARTx->CR3, USART_CR3_RTSE | USART_CR3_CTSE));
 800195e:	6893      	ldr	r3, [r2, #8]
 8001960:	f403 7340 	and.w	r3, r3, #768	; 0x300
	if (flowctrl != uart_stm32_get_hwctrl(dev)) {
 8001964:	459e      	cmp	lr, r3
  MODIFY_REG(USARTx->CR3, USART_CR3_RTSE | USART_CR3_CTSE, HardwareFlowControl);
 8001966:	bf1f      	itttt	ne
 8001968:	6893      	ldrne	r3, [r2, #8]
 800196a:	f423 7340 	bicne.w	r3, r3, #768	; 0x300
 800196e:	ea43 030e 	orrne.w	r3, r3, lr
 8001972:	6093      	strne	r3, [r2, #8]
	if (cfg->baudrate != data->baud_rate) {
 8001974:	6821      	ldr	r1, [r4, #0]
 8001976:	6833      	ldr	r3, [r6, #0]
 8001978:	4299      	cmp	r1, r3
 800197a:	d003      	beq.n	8001984 <uart_stm32_configure+0x10c>
		uart_stm32_set_baudrate(dev, cfg->baudrate);
 800197c:	f001 f951 	bl	8002c22 <uart_stm32_set_baudrate>
		data->baud_rate = cfg->baudrate;
 8001980:	6823      	ldr	r3, [r4, #0]
 8001982:	6033      	str	r3, [r6, #0]
	LL_USART_Enable(config->usart);
 8001984:	682a      	ldr	r2, [r5, #0]
  SET_BIT(USARTx->CR1, USART_CR1_UE);
 8001986:	6813      	ldr	r3, [r2, #0]
 8001988:	f043 0301 	orr.w	r3, r3, #1
 800198c:	6013      	str	r3, [r2, #0]
	return 0;
 800198e:	2000      	movs	r0, #0
};
 8001990:	e8bd 81f0 	ldmia.w	sp!, {r4, r5, r6, r7, r8, pc}
	switch (parity) {
 8001994:	f44f 61c0 	mov.w	r1, #1536	; 0x600
 8001998:	e77b      	b.n	8001892 <uart_stm32_configure+0x1a>
		if (p == UART_CFG_PARITY_NONE) {
 800199a:	bb0b      	cbnz	r3, 80019e0 <uart_stm32_configure+0x168>
	if (fc == UART_CFG_FLOW_CTRL_RTS_CTS) {
 800199c:	2a01      	cmp	r2, #1
 800199e:	f02c 0c02 	bic.w	ip, ip, #2
 80019a2:	d12f      	bne.n	8001a04 <uart_stm32_configure+0x18c>
	if (cfg->stop_bits == UART_CFG_STOP_BITS_0_5) {
 80019a4:	f1bc 0f00 	cmp.w	ip, #0
 80019a8:	d020      	beq.n	80019ec <uart_stm32_configure+0x174>
		return LL_USART_HWCONTROL_RTS_CTS;
 80019aa:	f44f 7e40 	mov.w	lr, #768	; 0x300
			return LL_USART_DATAWIDTH_7B;
 80019ae:	f04f 5380 	mov.w	r3, #268435456	; 0x10000000
 80019b2:	e793      	b.n	80018dc <uart_stm32_configure+0x64>
	if (fc == UART_CFG_FLOW_CTRL_RTS_CTS) {
 80019b4:	3b03      	subs	r3, #3
 80019b6:	2a01      	cmp	r2, #1
	if ((cfg->parity == UART_CFG_PARITY_MARK) ||
 80019b8:	b2db      	uxtb	r3, r3
	if (fc == UART_CFG_FLOW_CTRL_RTS_CTS) {
 80019ba:	d10c      	bne.n	80019d6 <uart_stm32_configure+0x15e>
	if ((cfg->parity == UART_CFG_PARITY_MARK) ||
 80019bc:	2b01      	cmp	r3, #1
 80019be:	d915      	bls.n	80019ec <uart_stm32_configure+0x174>
		return LL_USART_HWCONTROL_RTS_CTS;
 80019c0:	f44f 7e40 	mov.w	lr, #768	; 0x300
	if (cfg->stop_bits == UART_CFG_STOP_BITS_0_5) {
 80019c4:	f01c 0ffd 	tst.w	ip, #253	; 0xfd
 80019c8:	d010      	beq.n	80019ec <uart_stm32_configure+0x174>
	if ((cfg->data_bits == UART_CFG_DATA_BITS_5) ||
 80019ca:	f1b8 0f01 	cmp.w	r8, #1
 80019ce:	d90d      	bls.n	80019ec <uart_stm32_configure+0x174>
 80019d0:	f44f 5380 	mov.w	r3, #4096	; 0x1000
 80019d4:	e782      	b.n	80018dc <uart_stm32_configure+0x64>
	if ((cfg->parity == UART_CFG_PARITY_MARK) ||
 80019d6:	2b01      	cmp	r3, #1
 80019d8:	d908      	bls.n	80019ec <uart_stm32_configure+0x174>
	return LL_USART_HWCONTROL_NONE;
 80019da:	f04f 0e00 	mov.w	lr, #0
 80019de:	e7f1      	b.n	80019c4 <uart_stm32_configure+0x14c>
	if (fc == UART_CFG_FLOW_CTRL_RTS_CTS) {
 80019e0:	3b03      	subs	r3, #3
 80019e2:	2a01      	cmp	r2, #1
	if ((cfg->parity == UART_CFG_PARITY_MARK) ||
 80019e4:	b2db      	uxtb	r3, r3
	if (fc == UART_CFG_FLOW_CTRL_RTS_CTS) {
 80019e6:	d004      	beq.n	80019f2 <uart_stm32_configure+0x17a>
	if ((cfg->parity == UART_CFG_PARITY_MARK) ||
 80019e8:	2b01      	cmp	r3, #1
 80019ea:	d819      	bhi.n	8001a20 <uart_stm32_configure+0x1a8>
		return -ENOTSUP;
 80019ec:	f06f 0085 	mvn.w	r0, #133	; 0x85
 80019f0:	e7ce      	b.n	8001990 <uart_stm32_configure+0x118>
	if ((cfg->parity == UART_CFG_PARITY_MARK) ||
 80019f2:	2b01      	cmp	r3, #1
 80019f4:	d9fa      	bls.n	80019ec <uart_stm32_configure+0x174>
	if (cfg->stop_bits == UART_CFG_STOP_BITS_0_5) {
 80019f6:	f01c 0ffd 	tst.w	ip, #253	; 0xfd
 80019fa:	d0f7      	beq.n	80019ec <uart_stm32_configure+0x174>
		return LL_USART_HWCONTROL_RTS_CTS;
 80019fc:	f44f 7e40 	mov.w	lr, #768	; 0x300
			return LL_USART_DATAWIDTH_8B;
 8001a00:	2300      	movs	r3, #0
 8001a02:	e76b      	b.n	80018dc <uart_stm32_configure+0x64>
	if (cfg->stop_bits == UART_CFG_STOP_BITS_0_5) {
 8001a04:	f1bc 0f00 	cmp.w	ip, #0
 8001a08:	d0f0      	beq.n	80019ec <uart_stm32_configure+0x174>
	return LL_USART_HWCONTROL_NONE;
 8001a0a:	469e      	mov	lr, r3
 8001a0c:	e7cf      	b.n	80019ae <uart_stm32_configure+0x136>
	if (cfg->stop_bits == UART_CFG_STOP_BITS_0_5) {
 8001a0e:	f1bc 0f00 	cmp.w	ip, #0
 8001a12:	d0eb      	beq.n	80019ec <uart_stm32_configure+0x174>
	if ((cfg->data_bits == UART_CFG_DATA_BITS_5) ||
 8001a14:	f1b8 0f01 	cmp.w	r8, #1
 8001a18:	d9e8      	bls.n	80019ec <uart_stm32_configure+0x174>
	return LL_USART_HWCONTROL_NONE;
 8001a1a:	469e      	mov	lr, r3
			return LL_USART_DATAWIDTH_8B;
 8001a1c:	4673      	mov	r3, lr
 8001a1e:	e75d      	b.n	80018dc <uart_stm32_configure+0x64>
	if (cfg->stop_bits == UART_CFG_STOP_BITS_0_5) {
 8001a20:	f01c 0ffd 	tst.w	ip, #253	; 0xfd
 8001a24:	d0e2      	beq.n	80019ec <uart_stm32_configure+0x174>
	return LL_USART_HWCONTROL_NONE;
 8001a26:	f04f 0e00 	mov.w	lr, #0
 8001a2a:	e7f7      	b.n	8001a1c <uart_stm32_configure+0x1a4>
 8001a2c:	080034d8 	.word	0x080034d8
 8001a30:	40013800 	.word	0x40013800

08001a34 <elapsed>:
 *     - the timer reset or the last time the function was called
 *     - and until the current call of the function is completed.
 * - the function is invoked with interrupts disabled.
 */
static uint32_t elapsed(void)
{
 8001a34:	b510      	push	{r4, lr}
	uint32_t val1 = SysTick->VAL;	/* A */
 8001a36:	f04f 23e0 	mov.w	r3, #3758153728	; 0xe000e000
 8001a3a:	699a      	ldr	r2, [r3, #24]
	uint32_t ctrl = SysTick->CTRL;	/* B */
 8001a3c:	6919      	ldr	r1, [r3, #16]
	uint32_t val2 = SysTick->VAL;	/* C */
 8001a3e:	6998      	ldr	r0, [r3, #24]
	 * 4) After C we'll see it next time
	 *
	 * So the count in val2 is post-wrap and last_load needs to be
	 * added if and only if COUNTFLAG is set or val1 < val2.
	 */
	if ((ctrl & SysTick_CTRL_COUNTFLAG_Msk)
 8001a40:	4b09      	ldr	r3, [pc, #36]	; (8001a68 <elapsed+0x34>)
 8001a42:	f411 3f80 	tst.w	r1, #65536	; 0x10000
 8001a46:	4909      	ldr	r1, [pc, #36]	; (8001a6c <elapsed+0x38>)
 8001a48:	d101      	bne.n	8001a4e <elapsed+0x1a>
	    || (val1 < val2)) {
 8001a4a:	4282      	cmp	r2, r0
 8001a4c:	d206      	bcs.n	8001a5c <elapsed+0x28>
		overflow_cyc += last_load;
 8001a4e:	681a      	ldr	r2, [r3, #0]
 8001a50:	680c      	ldr	r4, [r1, #0]
 8001a52:	4422      	add	r2, r4
 8001a54:	601a      	str	r2, [r3, #0]

		/* We know there was a wrap, but we might not have
		 * seen it in CTRL, so clear it. */
		(void)SysTick->CTRL;
 8001a56:	f04f 22e0 	mov.w	r2, #3758153728	; 0xe000e000
 8001a5a:	6912      	ldr	r2, [r2, #16]
	}

	return (last_load - val2) + overflow_cyc;
 8001a5c:	681b      	ldr	r3, [r3, #0]
 8001a5e:	680a      	ldr	r2, [r1, #0]
 8001a60:	4413      	add	r3, r2
}
 8001a62:	1a18      	subs	r0, r3, r0
 8001a64:	bd10      	pop	{r4, pc}
 8001a66:	bf00      	nop
 8001a68:	2000022c 	.word	0x2000022c
 8001a6c:	20000238 	.word	0x20000238

08001a70 <sys_clock_driver_init>:
    SCB->SHP[(((uint32_t)IRQn) & 0xFUL)-4UL] = (uint8_t)((priority << (8U - __NVIC_PRIO_BITS)) & (uint32_t)0xFFUL);
 8001a70:	4b09      	ldr	r3, [pc, #36]	; (8001a98 <sys_clock_driver_init+0x28>)
 8001a72:	2210      	movs	r2, #16
 8001a74:	f883 2023 	strb.w	r2, [r3, #35]	; 0x23
static int sys_clock_driver_init(const struct device *dev)
{
	ARG_UNUSED(dev);

	NVIC_SetPriority(SysTick_IRQn, _IRQ_PRIO_OFFSET);
	last_load = CYC_PER_TICK - 1;
 8001a78:	4b08      	ldr	r3, [pc, #32]	; (8001a9c <sys_clock_driver_init+0x2c>)
 8001a7a:	f641 723f 	movw	r2, #7999	; 0x1f3f
 8001a7e:	601a      	str	r2, [r3, #0]
	overflow_cyc = 0U;
 8001a80:	4b07      	ldr	r3, [pc, #28]	; (8001aa0 <sys_clock_driver_init+0x30>)
 8001a82:	2000      	movs	r0, #0
 8001a84:	6018      	str	r0, [r3, #0]
	SysTick->LOAD = last_load;
 8001a86:	f04f 23e0 	mov.w	r3, #3758153728	; 0xe000e000
 8001a8a:	615a      	str	r2, [r3, #20]
	SysTick->VAL = 0; /* resets timer to last_load */
 8001a8c:	6198      	str	r0, [r3, #24]
	SysTick->CTRL |= (SysTick_CTRL_ENABLE_Msk |
 8001a8e:	691a      	ldr	r2, [r3, #16]
 8001a90:	f042 0207 	orr.w	r2, r2, #7
 8001a94:	611a      	str	r2, [r3, #16]
			  SysTick_CTRL_TICKINT_Msk |
			  SysTick_CTRL_CLKSOURCE_Msk);
	return 0;
}
 8001a96:	4770      	bx	lr
 8001a98:	e000ed00 	.word	0xe000ed00
 8001a9c:	20000238 	.word	0x20000238
 8001aa0:	2000022c 	.word	0x2000022c

08001aa4 <sys_clock_isr>:
{
 8001aa4:	b508      	push	{r3, lr}
	elapsed();
 8001aa6:	f7ff ffc5 	bl	8001a34 <elapsed>
	cycle_count += overflow_cyc;
 8001aaa:	4b0c      	ldr	r3, [pc, #48]	; (8001adc <sys_clock_isr+0x38>)
 8001aac:	4a0c      	ldr	r2, [pc, #48]	; (8001ae0 <sys_clock_isr+0x3c>)
 8001aae:	6818      	ldr	r0, [r3, #0]
 8001ab0:	6811      	ldr	r1, [r2, #0]
 8001ab2:	4408      	add	r0, r1
 8001ab4:	6010      	str	r0, [r2, #0]
	overflow_cyc = 0;
 8001ab6:	2200      	movs	r2, #0
 8001ab8:	601a      	str	r2, [r3, #0]
		dticks = (cycle_count - announced_cycles) / CYC_PER_TICK;
 8001aba:	4a0a      	ldr	r2, [pc, #40]	; (8001ae4 <sys_clock_isr+0x40>)
 8001abc:	6813      	ldr	r3, [r2, #0]
 8001abe:	f44f 51fa 	mov.w	r1, #8000	; 0x1f40
 8001ac2:	1ac0      	subs	r0, r0, r3
 8001ac4:	fbb0 f0f1 	udiv	r0, r0, r1
		announced_cycles += dticks * CYC_PER_TICK;
 8001ac8:	fb01 3300 	mla	r3, r1, r0, r3
 8001acc:	6013      	str	r3, [r2, #0]
		sys_clock_announce(dticks);
 8001ace:	f000 fda9 	bl	8002624 <sys_clock_announce>
}
 8001ad2:	e8bd 4008 	ldmia.w	sp!, {r3, lr}
	z_arm_int_exit();
 8001ad6:	f7ff b9e9 	b.w	8000eac <z_arm_exc_exit>
 8001ada:	bf00      	nop
 8001adc:	2000022c 	.word	0x2000022c
 8001ae0:	20000234 	.word	0x20000234
 8001ae4:	20000230 	.word	0x20000230

08001ae8 <sys_clock_set_timeout>:
{
 8001ae8:	e92d 41f0 	stmdb	sp!, {r4, r5, r6, r7, r8, lr}
 8001aec:	4e32      	ldr	r6, [pc, #200]	; (8001bb8 <sys_clock_set_timeout+0xd0>)
	if (IS_ENABLED(CONFIG_TICKLESS_KERNEL) && idle && ticks == K_TICKS_FOREVER) {
 8001aee:	2900      	cmp	r1, #0
 8001af0:	d053      	beq.n	8001b9a <sys_clock_set_timeout+0xb2>
 8001af2:	1c42      	adds	r2, r0, #1
 8001af4:	d10a      	bne.n	8001b0c <sys_clock_set_timeout+0x24>
		SysTick->CTRL &= ~SysTick_CTRL_ENABLE_Msk;
 8001af6:	f04f 22e0 	mov.w	r2, #3758153728	; 0xe000e000
 8001afa:	6913      	ldr	r3, [r2, #16]
 8001afc:	f023 0301 	bic.w	r3, r3, #1
 8001b00:	6113      	str	r3, [r2, #16]
		last_load = TIMER_STOPPED;
 8001b02:	f04f 437f 	mov.w	r3, #4278190080	; 0xff000000
 8001b06:	6033      	str	r3, [r6, #0]
}
 8001b08:	e8bd 81f0 	ldmia.w	sp!, {r4, r5, r6, r7, r8, pc}
	uint32_t last_load_ = last_load;
 8001b0c:	6834      	ldr	r4, [r6, #0]
	ticks = CLAMP(ticks - 1, 0, (int32_t)MAX_TICKS);
 8001b0e:	2801      	cmp	r0, #1
 8001b10:	dd49      	ble.n	8001ba6 <sys_clock_set_timeout+0xbe>
 8001b12:	f5b0 6f03 	cmp.w	r0, #2096	; 0x830
 8001b16:	dc49      	bgt.n	8001bac <sys_clock_set_timeout+0xc4>
 8001b18:	f100 38ff 	add.w	r8, r0, #4294967295
	__asm__ volatile(
 8001b1c:	f04f 0310 	mov.w	r3, #16
 8001b20:	f3ef 8511 	mrs	r5, BASEPRI
 8001b24:	f383 8812 	msr	BASEPRI_MAX, r3
 8001b28:	f3bf 8f6f 	isb	sy
	uint32_t pending = elapsed();
 8001b2c:	f7ff ff82 	bl	8001a34 <elapsed>
	val1 = SysTick->VAL;
 8001b30:	f04f 23e0 	mov.w	r3, #3758153728	; 0xe000e000
	cycle_count += pending;
 8001b34:	4921      	ldr	r1, [pc, #132]	; (8001bbc <sys_clock_set_timeout+0xd4>)
	val1 = SysTick->VAL;
 8001b36:	699f      	ldr	r7, [r3, #24]
	cycle_count += pending;
 8001b38:	680b      	ldr	r3, [r1, #0]
 8001b3a:	4418      	add	r0, r3
	overflow_cyc = 0U;
 8001b3c:	4b20      	ldr	r3, [pc, #128]	; (8001bc0 <sys_clock_set_timeout+0xd8>)
 8001b3e:	2200      	movs	r2, #0
 8001b40:	601a      	str	r2, [r3, #0]
	uint32_t unannounced = cycle_count - announced_cycles;
 8001b42:	4b20      	ldr	r3, [pc, #128]	; (8001bc4 <sys_clock_set_timeout+0xdc>)
 8001b44:	681b      	ldr	r3, [r3, #0]
	if ((int32_t)unannounced < 0) {
 8001b46:	1ac2      	subs	r2, r0, r3
 8001b48:	d433      	bmi.n	8001bb2 <sys_clock_set_timeout+0xca>
		delay = ticks * CYC_PER_TICK;
 8001b4a:	f44f 5cfa 	mov.w	ip, #8000	; 0x1f40
		delay += unannounced;
 8001b4e:	fb0c 2208 	mla	r2, ip, r8, r2
		 ((delay + CYC_PER_TICK - 1) / CYC_PER_TICK) * CYC_PER_TICK;
 8001b52:	f502 52f9 	add.w	r2, r2, #7968	; 0x1f20
		delay -= unannounced;
 8001b56:	1a1b      	subs	r3, r3, r0
		 ((delay + CYC_PER_TICK - 1) / CYC_PER_TICK) * CYC_PER_TICK;
 8001b58:	321f      	adds	r2, #31
 8001b5a:	fbb2 f2fc 	udiv	r2, r2, ip
		delay -= unannounced;
 8001b5e:	fb0c 3302 	mla	r3, ip, r2, r3
		delay = MAX(delay, MIN_DELAY);
 8001b62:	f5b3 6f80 	cmp.w	r3, #1024	; 0x400
 8001b66:	d924      	bls.n	8001bb2 <sys_clock_set_timeout+0xca>
		if (delay > MAX_CYCLES) {
 8001b68:	4a17      	ldr	r2, [pc, #92]	; (8001bc8 <sys_clock_set_timeout+0xe0>)
 8001b6a:	4293      	cmp	r3, r2
 8001b6c:	bf28      	it	cs
 8001b6e:	4613      	movcs	r3, r2
	val2 = SysTick->VAL;
 8001b70:	f04f 22e0 	mov.w	r2, #3758153728	; 0xe000e000
		last_load = MIN_DELAY;
 8001b74:	6033      	str	r3, [r6, #0]
	val2 = SysTick->VAL;
 8001b76:	6996      	ldr	r6, [r2, #24]
	if (val1 < val2) {
 8001b78:	42b7      	cmp	r7, r6
 8001b7a:	eba7 0706 	sub.w	r7, r7, r6
	SysTick->LOAD = last_load - 1;
 8001b7e:	f103 33ff 	add.w	r3, r3, #4294967295
		cycle_count += (val1 + (last_load_ - val2));
 8001b82:	bf38      	it	cc
 8001b84:	193f      	addcc	r7, r7, r4
	SysTick->LOAD = last_load - 1;
 8001b86:	6153      	str	r3, [r2, #20]
		cycle_count += (val1 - val2);
 8001b88:	4438      	add	r0, r7
	SysTick->VAL = 0; /* resets timer to last_load */
 8001b8a:	2300      	movs	r3, #0
 8001b8c:	6193      	str	r3, [r2, #24]
		cycle_count += (val1 - val2);
 8001b8e:	6008      	str	r0, [r1, #0]
	__asm__ volatile(
 8001b90:	f385 8811 	msr	BASEPRI, r5
 8001b94:	f3bf 8f6f 	isb	sy
 8001b98:	e7b6      	b.n	8001b08 <sys_clock_set_timeout+0x20>
	ticks = (ticks == K_TICKS_FOREVER) ? MAX_TICKS : ticks;
 8001b9a:	1c43      	adds	r3, r0, #1
	uint32_t last_load_ = last_load;
 8001b9c:	6834      	ldr	r4, [r6, #0]
	ticks = (ticks == K_TICKS_FOREVER) ? MAX_TICKS : ticks;
 8001b9e:	d1b6      	bne.n	8001b0e <sys_clock_set_timeout+0x26>
 8001ba0:	f44f 6003 	mov.w	r0, #2096	; 0x830
 8001ba4:	e7b8      	b.n	8001b18 <sys_clock_set_timeout+0x30>
	ticks = CLAMP(ticks - 1, 0, (int32_t)MAX_TICKS);
 8001ba6:	f04f 0800 	mov.w	r8, #0
 8001baa:	e7b7      	b.n	8001b1c <sys_clock_set_timeout+0x34>
 8001bac:	f44f 6803 	mov.w	r8, #2096	; 0x830
 8001bb0:	e7b4      	b.n	8001b1c <sys_clock_set_timeout+0x34>
 8001bb2:	f44f 6380 	mov.w	r3, #1024	; 0x400
 8001bb6:	e7db      	b.n	8001b70 <sys_clock_set_timeout+0x88>
 8001bb8:	20000238 	.word	0x20000238
 8001bbc:	20000234 	.word	0x20000234
 8001bc0:	2000022c 	.word	0x2000022c
 8001bc4:	20000230 	.word	0x20000230
 8001bc8:	00ffdc00 	.word	0x00ffdc00

08001bcc <sys_clock_elapsed>:
{
 8001bcc:	b510      	push	{r4, lr}
	__asm__ volatile(
 8001bce:	f04f 0310 	mov.w	r3, #16
 8001bd2:	f3ef 8411 	mrs	r4, BASEPRI
 8001bd6:	f383 8812 	msr	BASEPRI_MAX, r3
 8001bda:	f3bf 8f6f 	isb	sy
	uint32_t cyc = elapsed() + cycle_count - announced_cycles;
 8001bde:	f7ff ff29 	bl	8001a34 <elapsed>
 8001be2:	4b07      	ldr	r3, [pc, #28]	; (8001c00 <sys_clock_elapsed+0x34>)
 8001be4:	4a07      	ldr	r2, [pc, #28]	; (8001c04 <sys_clock_elapsed+0x38>)
 8001be6:	681b      	ldr	r3, [r3, #0]
 8001be8:	6812      	ldr	r2, [r2, #0]
 8001bea:	1a9b      	subs	r3, r3, r2
 8001bec:	4403      	add	r3, r0
	__asm__ volatile(
 8001bee:	f384 8811 	msr	BASEPRI, r4
 8001bf2:	f3bf 8f6f 	isb	sy
}
 8001bf6:	f44f 50fa 	mov.w	r0, #8000	; 0x1f40
 8001bfa:	fbb3 f0f0 	udiv	r0, r3, r0
 8001bfe:	bd10      	pop	{r4, pc}
 8001c00:	20000234 	.word	0x20000234
 8001c04:	20000230 	.word	0x20000230

08001c08 <pinctrl_configure_pins>:
	return gpio_stm32_configure(port_device, STM32_PIN(pin), pin_cgf, pin_func);
}

int pinctrl_configure_pins(const pinctrl_soc_pin_t *pins, uint8_t pin_cnt,
			   uintptr_t reg)
{
 8001c08:	e92d 47f0 	stmdb	sp!, {r4, r5, r6, r7, r8, r9, sl, lr}
	port_device = gpio_ports[STM32_PORT(pin)];
 8001c0c:	4f20      	ldr	r7, [pc, #128]	; (8001c90 <pinctrl_configure_pins+0x88>)
 8001c0e:	4604      	mov	r4, r0
 8001c10:	eb00 06c1 	add.w	r6, r0, r1, lsl #3
	uint32_t pin, mux;
	uint32_t pin_cgf = 0;
 8001c14:	2500      	movs	r5, #0
	if (ret < 0) {
		return ret;
	}
#endif /* DT_HAS_COMPAT_STATUS_OKAY(st_stm32f1_pinctrl) */

	for (uint8_t i = 0U; i < pin_cnt; i++) {
 8001c16:	42b4      	cmp	r4, r6
 8001c18:	d101      	bne.n	8001c1e <pinctrl_configure_pins+0x16>
		if (ret < 0) {
			return ret;
		}
	}

	return 0;
 8001c1a:	2000      	movs	r0, #0
 8001c1c:	e014      	b.n	8001c48 <pinctrl_configure_pins+0x40>
		mux = pins[i].pinmux;
 8001c1e:	6822      	ldr	r2, [r4, #0]
		if (STM32_DT_PINMUX_FUNC(mux) < STM32_ANALOG) {
 8001c20:	06d1      	lsls	r1, r2, #27
		} else if (STM32_DT_PINMUX_FUNC(mux) == STM32_ANALOG) {
 8001c22:	f002 091f 	and.w	r9, r2, #31
		if (STM32_DT_PINMUX_FUNC(mux) < STM32_ANALOG) {
 8001c26:	d411      	bmi.n	8001c4c <pinctrl_configure_pins+0x44>
			pin_cgf = pins[i].pincfg | STM32_MODER_ALT_MODE;
 8001c28:	6865      	ldr	r5, [r4, #4]
 8001c2a:	f045 0520 	orr.w	r5, r5, #32
		pin = STM32PIN(STM32_DT_PINMUX_PORT(mux),
 8001c2e:	f3c2 1a47 	ubfx	sl, r2, #5, #8
	if (STM32_PORT(pin) >= gpio_ports_cnt) {
 8001c32:	f3c2 2243 	ubfx	r2, r2, #9, #4
 8001c36:	2a0a      	cmp	r2, #10
 8001c38:	d827      	bhi.n	8001c8a <pinctrl_configure_pins+0x82>
	port_device = gpio_ports[STM32_PORT(pin)];
 8001c3a:	f857 8022 	ldr.w	r8, [r7, r2, lsl #2]
	if ((port_device == NULL) || (!device_is_ready(port_device))) {
 8001c3e:	f1b8 0f00 	cmp.w	r8, #0
 8001c42:	d111      	bne.n	8001c68 <pinctrl_configure_pins+0x60>
		return -ENODEV;
 8001c44:	f06f 0012 	mvn.w	r0, #18
}
 8001c48:	e8bd 87f0 	ldmia.w	sp!, {r4, r5, r6, r7, r8, r9, sl, pc}
		} else if (STM32_DT_PINMUX_FUNC(mux) == STM32_ANALOG) {
 8001c4c:	f1b9 0f10 	cmp.w	r9, #16
 8001c50:	d008      	beq.n	8001c64 <pinctrl_configure_pins+0x5c>
		} else if (STM32_DT_PINMUX_FUNC(mux) == STM32_GPIO) {
 8001c52:	f1b9 0f11 	cmp.w	r9, #17
 8001c56:	d1ea      	bne.n	8001c2e <pinctrl_configure_pins+0x26>
			uint32_t gpio_out = pins[i].pincfg &
 8001c58:	6865      	ldr	r5, [r4, #4]
			if (gpio_out != 0) {
 8001c5a:	052b      	lsls	r3, r5, #20
 8001c5c:	d5e7      	bpl.n	8001c2e <pinctrl_configure_pins+0x26>
				pin_cgf = pins[i].pincfg | STM32_MODER_OUTPUT_MODE;
 8001c5e:	f045 0510 	orr.w	r5, r5, #16
 8001c62:	e7e4      	b.n	8001c2e <pinctrl_configure_pins+0x26>
			pin_cgf = STM32_MODER_ANALOG_MODE;
 8001c64:	2530      	movs	r5, #48	; 0x30
 8001c66:	e7e2      	b.n	8001c2e <pinctrl_configure_pins+0x26>
 8001c68:	4640      	mov	r0, r8
 8001c6a:	f001 f8b6 	bl	8002dda <z_device_is_ready>
	if ((port_device == NULL) || (!device_is_ready(port_device))) {
 8001c6e:	2800      	cmp	r0, #0
 8001c70:	d0e8      	beq.n	8001c44 <pinctrl_configure_pins+0x3c>
	return gpio_stm32_configure(port_device, STM32_PIN(pin), pin_cgf, pin_func);
 8001c72:	464b      	mov	r3, r9
 8001c74:	462a      	mov	r2, r5
 8001c76:	f00a 010f 	and.w	r1, sl, #15
 8001c7a:	4640      	mov	r0, r8
 8001c7c:	f000 ffbc 	bl	8002bf8 <gpio_stm32_configure>
		if (ret < 0) {
 8001c80:	2800      	cmp	r0, #0
 8001c82:	f104 0408 	add.w	r4, r4, #8
 8001c86:	dac6      	bge.n	8001c16 <pinctrl_configure_pins+0xe>
 8001c88:	e7de      	b.n	8001c48 <pinctrl_configure_pins+0x40>
		return -EINVAL;
 8001c8a:	f06f 0015 	mvn.w	r0, #21
 8001c8e:	e7db      	b.n	8001c48 <pinctrl_configure_pins+0x40>
 8001c90:	08003464 	.word	0x08003464

08001c94 <HAL_RCC_GetSysClockFreq>:
{
  uint32_t msirange = 0U, sysclockfreq = 0U;
  uint32_t pllvco, pllsource, pllr, pllm;    /* no init needed */
  uint32_t sysclk_source, pll_oscsource;

  sysclk_source = __HAL_RCC_GET_SYSCLK_SOURCE();
 8001c94:	4b22      	ldr	r3, [pc, #136]	; (8001d20 <HAL_RCC_GetSysClockFreq+0x8c>)
 8001c96:	689a      	ldr	r2, [r3, #8]
  pll_oscsource = __HAL_RCC_GET_PLL_OSCSOURCE();
 8001c98:	68d9      	ldr	r1, [r3, #12]

  if((sysclk_source == RCC_CFGR_SWS_MSI) ||
 8001c9a:	f012 020c 	ands.w	r2, r2, #12
 8001c9e:	d005      	beq.n	8001cac <HAL_RCC_GetSysClockFreq+0x18>
 8001ca0:	2a0c      	cmp	r2, #12
 8001ca2:	d115      	bne.n	8001cd0 <HAL_RCC_GetSysClockFreq+0x3c>
  pll_oscsource = __HAL_RCC_GET_PLL_OSCSOURCE();
 8001ca4:	f001 0103 	and.w	r1, r1, #3
     ((sysclk_source == RCC_CFGR_SWS_PLL) && (pll_oscsource == RCC_PLLSOURCE_MSI)))
 8001ca8:	2901      	cmp	r1, #1
 8001caa:	d118      	bne.n	8001cde <HAL_RCC_GetSysClockFreq+0x4a>
  {
    /* MSI or PLL with MSI source used as system clock source */

    /* Get SYSCLK source */
    if(READ_BIT(RCC->CR, RCC_CR_MSIRGSEL) == 0U)
 8001cac:	6819      	ldr	r1, [r3, #0]
    else
    { /* MSIRANGE from RCC_CR applies */
      msirange = READ_BIT(RCC->CR, RCC_CR_MSIRANGE) >> RCC_CR_MSIRANGE_Pos;
    }
    /*MSI frequency range in HZ*/
    msirange = MSIRangeTable[msirange];
 8001cae:	481d      	ldr	r0, [pc, #116]	; (8001d24 <HAL_RCC_GetSysClockFreq+0x90>)
    if(READ_BIT(RCC->CR, RCC_CR_MSIRGSEL) == 0U)
 8001cb0:	0709      	lsls	r1, r1, #28
      msirange = READ_BIT(RCC->CSR, RCC_CSR_MSISRANGE) >> RCC_CSR_MSISRANGE_Pos;
 8001cb2:	bf55      	itete	pl
 8001cb4:	f8d3 1094 	ldrpl.w	r1, [r3, #148]	; 0x94
      msirange = READ_BIT(RCC->CR, RCC_CR_MSIRANGE) >> RCC_CR_MSIRANGE_Pos;
 8001cb8:	6819      	ldrmi	r1, [r3, #0]
      msirange = READ_BIT(RCC->CSR, RCC_CSR_MSISRANGE) >> RCC_CSR_MSISRANGE_Pos;
 8001cba:	f3c1 2103 	ubfxpl	r1, r1, #8, #4
      msirange = READ_BIT(RCC->CR, RCC_CR_MSIRANGE) >> RCC_CR_MSIRANGE_Pos;
 8001cbe:	f3c1 1103 	ubfxmi	r1, r1, #4, #4
    msirange = MSIRangeTable[msirange];
 8001cc2:	f850 0021 	ldr.w	r0, [r0, r1, lsl #2]

    if(sysclk_source == RCC_CFGR_SWS_MSI)
 8001cc6:	b112      	cbz	r2, 8001cce <HAL_RCC_GetSysClockFreq+0x3a>
  else
  {
    /* unexpected case: sysclockfreq at 0 */
  }

  if(sysclk_source == RCC_CFGR_SWS_PLL)
 8001cc8:	2a0c      	cmp	r2, #12
 8001cca:	d009      	beq.n	8001ce0 <HAL_RCC_GetSysClockFreq+0x4c>
  uint32_t msirange = 0U, sysclockfreq = 0U;
 8001ccc:	2000      	movs	r0, #0
    pllr = ((READ_BIT(RCC->PLLCFGR, RCC_PLLCFGR_PLLR) >> RCC_PLLCFGR_PLLR_Pos) + 1U ) * 2U;
    sysclockfreq = pllvco / pllr;
  }

  return sysclockfreq;
}
 8001cce:	4770      	bx	lr
  else if(sysclk_source == RCC_CFGR_SWS_HSI)
 8001cd0:	2a04      	cmp	r2, #4
 8001cd2:	d022      	beq.n	8001d1a <HAL_RCC_GetSysClockFreq+0x86>
    sysclockfreq = HSE_VALUE;
 8001cd4:	2a08      	cmp	r2, #8
 8001cd6:	4814      	ldr	r0, [pc, #80]	; (8001d28 <HAL_RCC_GetSysClockFreq+0x94>)
 8001cd8:	bf18      	it	ne
 8001cda:	2000      	movne	r0, #0
 8001cdc:	4770      	bx	lr
  uint32_t msirange = 0U, sysclockfreq = 0U;
 8001cde:	2000      	movs	r0, #0
    pllsource = READ_BIT(RCC->PLLCFGR, RCC_PLLCFGR_PLLSRC);
 8001ce0:	68da      	ldr	r2, [r3, #12]
 8001ce2:	f002 0203 	and.w	r2, r2, #3
    switch (pllsource)
 8001ce6:	2a02      	cmp	r2, #2
 8001ce8:	d015      	beq.n	8001d16 <HAL_RCC_GetSysClockFreq+0x82>
 8001cea:	490f      	ldr	r1, [pc, #60]	; (8001d28 <HAL_RCC_GetSysClockFreq+0x94>)
 8001cec:	2a03      	cmp	r2, #3
 8001cee:	bf08      	it	eq
 8001cf0:	4608      	moveq	r0, r1
    pllm = (READ_BIT(RCC->PLLCFGR, RCC_PLLCFGR_PLLM) >> RCC_PLLCFGR_PLLM_Pos) + 1U ;
 8001cf2:	68d9      	ldr	r1, [r3, #12]
    pllvco = (pllvco * (READ_BIT(RCC->PLLCFGR, RCC_PLLCFGR_PLLN) >> RCC_PLLCFGR_PLLN_Pos)) / pllm;
 8001cf4:	68da      	ldr	r2, [r3, #12]
 8001cf6:	f3c2 2206 	ubfx	r2, r2, #8, #7
 8001cfa:	4342      	muls	r2, r0
    pllr = ((READ_BIT(RCC->PLLCFGR, RCC_PLLCFGR_PLLR) >> RCC_PLLCFGR_PLLR_Pos) + 1U ) * 2U;
 8001cfc:	68d8      	ldr	r0, [r3, #12]
 8001cfe:	f3c0 6041 	ubfx	r0, r0, #25, #2
    pllm = (READ_BIT(RCC->PLLCFGR, RCC_PLLCFGR_PLLM) >> RCC_PLLCFGR_PLLM_Pos) + 1U ;
 8001d02:	f3c1 1102 	ubfx	r1, r1, #4, #3
    pllr = ((READ_BIT(RCC->PLLCFGR, RCC_PLLCFGR_PLLR) >> RCC_PLLCFGR_PLLR_Pos) + 1U ) * 2U;
 8001d06:	3001      	adds	r0, #1
    pllm = (READ_BIT(RCC->PLLCFGR, RCC_PLLCFGR_PLLM) >> RCC_PLLCFGR_PLLM_Pos) + 1U ;
 8001d08:	3101      	adds	r1, #1
    pllr = ((READ_BIT(RCC->PLLCFGR, RCC_PLLCFGR_PLLR) >> RCC_PLLCFGR_PLLR_Pos) + 1U ) * 2U;
 8001d0a:	0040      	lsls	r0, r0, #1
    pllvco = (pllvco * (READ_BIT(RCC->PLLCFGR, RCC_PLLCFGR_PLLN) >> RCC_PLLCFGR_PLLN_Pos)) / pllm;
 8001d0c:	fbb2 f2f1 	udiv	r2, r2, r1
    sysclockfreq = pllvco / pllr;
 8001d10:	fbb2 f0f0 	udiv	r0, r2, r0
 8001d14:	4770      	bx	lr
      pllvco = HSI_VALUE;
 8001d16:	4805      	ldr	r0, [pc, #20]	; (8001d2c <HAL_RCC_GetSysClockFreq+0x98>)
 8001d18:	e7eb      	b.n	8001cf2 <HAL_RCC_GetSysClockFreq+0x5e>
    sysclockfreq = HSI_VALUE;
 8001d1a:	4804      	ldr	r0, [pc, #16]	; (8001d2c <HAL_RCC_GetSysClockFreq+0x98>)
 8001d1c:	4770      	bx	lr
 8001d1e:	bf00      	nop
 8001d20:	40021000 	.word	0x40021000
 8001d24:	08003490 	.word	0x08003490
 8001d28:	007a1200 	.word	0x007a1200
 8001d2c:	00f42400 	.word	0x00f42400

08001d30 <LL_SetFlashLatency>:
  ErrorStatus status = SUCCESS;

  uint32_t latency = LL_FLASH_LATENCY_0;  /* default value 0WS */

  /* Frequency cannot be equal to 0 or greater than max clock */
  if ((HCLKFrequency == 0U) || (HCLKFrequency > UTILS_MAX_FREQUENCY_SCALE1))
 8001d30:	4b1f      	ldr	r3, [pc, #124]	; (8001db0 <LL_SetFlashLatency+0x80>)
 8001d32:	1e42      	subs	r2, r0, #1
 8001d34:	429a      	cmp	r2, r3
 8001d36:	d901      	bls.n	8001d3c <LL_SetFlashLatency+0xc>
  {
    status = ERROR;
 8001d38:	2001      	movs	r0, #1
 8001d3a:	4770      	bx	lr
  *         @arg @ref LL_PWR_REGU_VOLTAGE_SCALE1
  *         @arg @ref LL_PWR_REGU_VOLTAGE_SCALE2
  */
__STATIC_INLINE uint32_t LL_PWR_GetRegulVoltageScaling(void)
{
  return (uint32_t)(READ_BIT(PWR->CR1, PWR_CR1_VOS));
 8001d3c:	4b1d      	ldr	r3, [pc, #116]	; (8001db4 <LL_SetFlashLatency+0x84>)
 8001d3e:	681b      	ldr	r3, [r3, #0]
 8001d40:	f403 63c0 	and.w	r3, r3, #1536	; 0x600
  }
  else
  {
    if(LL_PWR_GetRegulVoltageScaling() == LL_PWR_REGU_VOLTAGE_SCALE1)
 8001d44:	f5b3 7f00 	cmp.w	r3, #512	; 0x200
 8001d48:	d10f      	bne.n	8001d6a <LL_SetFlashLatency+0x3a>
          latency = LL_FLASH_LATENCY_1;
        }
        /* else HCLKFrequency <= 10MHz default LL_FLASH_LATENCY_0 0WS */
      }
#else
      if(HCLKFrequency > UTILS_SCALE1_LATENCY4_FREQ)
 8001d4a:	4b1b      	ldr	r3, [pc, #108]	; (8001db8 <LL_SetFlashLatency+0x88>)
 8001d4c:	4298      	cmp	r0, r3
 8001d4e:	d81a      	bhi.n	8001d86 <LL_SetFlashLatency+0x56>
      {
        /* 64 < HCLK <= 80 => 4WS (5 CPU cycles) */
        latency = LL_FLASH_LATENCY_4;
      }
      else if(HCLKFrequency > UTILS_SCALE1_LATENCY3_FREQ)
 8001d50:	4b1a      	ldr	r3, [pc, #104]	; (8001dbc <LL_SetFlashLatency+0x8c>)
 8001d52:	4298      	cmp	r0, r3
 8001d54:	d827      	bhi.n	8001da6 <LL_SetFlashLatency+0x76>
      {
        /* 48 < HCLK <= 64 => 3WS (4 CPU cycles) */
        latency = LL_FLASH_LATENCY_3;
      }
      else if(HCLKFrequency > UTILS_SCALE1_LATENCY2_FREQ)
 8001d56:	4b1a      	ldr	r3, [pc, #104]	; (8001dc0 <LL_SetFlashLatency+0x90>)
 8001d58:	4298      	cmp	r0, r3
 8001d5a:	d826      	bhi.n	8001daa <LL_SetFlashLatency+0x7a>
        /* 32 < HCLK <= 48 => 2WS (3 CPU cycles) */
        latency = LL_FLASH_LATENCY_2;
      }
      else
      {
        if(HCLKFrequency > UTILS_SCALE1_LATENCY1_FREQ)
 8001d5c:	4b19      	ldr	r3, [pc, #100]	; (8001dc4 <LL_SetFlashLatency+0x94>)
        /* 12 < HCLK <= 18 => 2WS (3 CPU cycles) */
        latency = LL_FLASH_LATENCY_2;
      }
      else
      {
        if(HCLKFrequency > UTILS_SCALE2_LATENCY1_FREQ)
 8001d5e:	4298      	cmp	r0, r3
 8001d60:	bf94      	ite	ls
 8001d62:	2300      	movls	r3, #0
 8001d64:	2301      	movhi	r3, #1
  ErrorStatus status = SUCCESS;
 8001d66:	2000      	movs	r0, #0
 8001d68:	e011      	b.n	8001d8e <LL_SetFlashLatency+0x5e>
      if(HCLKFrequency > UTILS_MAX_FREQUENCY_SCALE2)
 8001d6a:	4b17      	ldr	r3, [pc, #92]	; (8001dc8 <LL_SetFlashLatency+0x98>)
 8001d6c:	4298      	cmp	r0, r3
 8001d6e:	d80c      	bhi.n	8001d8a <LL_SetFlashLatency+0x5a>
      else if(HCLKFrequency > UTILS_SCALE2_LATENCY3_FREQ)
 8001d70:	f5a3 03f4 	sub.w	r3, r3, #7995392	; 0x7a0000
 8001d74:	f5a3 5390 	sub.w	r3, r3, #4608	; 0x1200
 8001d78:	4298      	cmp	r0, r3
 8001d7a:	d814      	bhi.n	8001da6 <LL_SetFlashLatency+0x76>
      else if(HCLKFrequency > UTILS_SCALE2_LATENCY2_FREQ)
 8001d7c:	4b13      	ldr	r3, [pc, #76]	; (8001dcc <LL_SetFlashLatency+0x9c>)
 8001d7e:	4298      	cmp	r0, r3
 8001d80:	d813      	bhi.n	8001daa <LL_SetFlashLatency+0x7a>
        if(HCLKFrequency > UTILS_SCALE2_LATENCY1_FREQ)
 8001d82:	4b13      	ldr	r3, [pc, #76]	; (8001dd0 <LL_SetFlashLatency+0xa0>)
 8001d84:	e7eb      	b.n	8001d5e <LL_SetFlashLatency+0x2e>
        latency = LL_FLASH_LATENCY_4;
 8001d86:	2304      	movs	r3, #4
 8001d88:	e7ed      	b.n	8001d66 <LL_SetFlashLatency+0x36>
  uint32_t latency = LL_FLASH_LATENCY_0;  /* default value 0WS */
 8001d8a:	2300      	movs	r3, #0
        status = ERROR;
 8001d8c:	2001      	movs	r0, #1
  *         (*) value not defined in all devices.
  * @retval None
  */
__STATIC_INLINE void LL_FLASH_SetLatency(uint32_t Latency)
{
  MODIFY_REG(FLASH->ACR, FLASH_ACR_LATENCY, Latency);
 8001d8e:	4911      	ldr	r1, [pc, #68]	; (8001dd4 <LL_SetFlashLatency+0xa4>)
 8001d90:	680a      	ldr	r2, [r1, #0]
 8001d92:	f022 0207 	bic.w	r2, r2, #7
 8001d96:	431a      	orrs	r2, r3
 8001d98:	600a      	str	r2, [r1, #0]
  *
  *         (*) value not defined in all devices.
  */
__STATIC_INLINE uint32_t LL_FLASH_GetLatency(void)
{
  return (uint32_t)(READ_BIT(FLASH->ACR, FLASH_ACR_LATENCY));
 8001d9a:	680a      	ldr	r2, [r1, #0]
 8001d9c:	f002 0207 	and.w	r2, r2, #7

    LL_FLASH_SetLatency(latency);

    /* Check that the new number of wait states is taken into account to access the Flash
       memory by reading the FLASH_ACR register */
    if(LL_FLASH_GetLatency() != latency)
 8001da0:	4293      	cmp	r3, r2
 8001da2:	d1c9      	bne.n	8001d38 <LL_SetFlashLatency+0x8>
    {
      status = ERROR;
    }
  }
  return status;
}
 8001da4:	4770      	bx	lr
        latency = LL_FLASH_LATENCY_3;
 8001da6:	2303      	movs	r3, #3
 8001da8:	e7dd      	b.n	8001d66 <LL_SetFlashLatency+0x36>
        latency = LL_FLASH_LATENCY_2;
 8001daa:	2302      	movs	r3, #2
 8001dac:	e7db      	b.n	8001d66 <LL_SetFlashLatency+0x36>
 8001dae:	bf00      	nop
 8001db0:	04c4b3ff 	.word	0x04c4b3ff
 8001db4:	40007000 	.word	0x40007000
 8001db8:	03d09000 	.word	0x03d09000
 8001dbc:	02dc6c00 	.word	0x02dc6c00
 8001dc0:	01e84800 	.word	0x01e84800
 8001dc4:	00f42400 	.word	0x00f42400
 8001dc8:	018cba80 	.word	0x018cba80
 8001dcc:	00b71b00 	.word	0x00b71b00
 8001dd0:	005b8d80 	.word	0x005b8d80
 8001dd4:	40022000 	.word	0x40022000

08001dd8 <z_sys_init_run_level>:
		/* End marker */
		__init_end,
	};
	const struct init_entry *entry;

	for (entry = levels[level]; entry < levels[level+1]; entry++) {
 8001dd8:	4b0f      	ldr	r3, [pc, #60]	; (8001e18 <z_sys_init_run_level+0x40>)
{
 8001dda:	b570      	push	{r4, r5, r6, lr}
	for (entry = levels[level]; entry < levels[level+1]; entry++) {
 8001ddc:	f853 4020 	ldr.w	r4, [r3, r0, lsl #2]
 8001de0:	3001      	adds	r0, #1
 8001de2:	f853 6020 	ldr.w	r6, [r3, r0, lsl #2]
 8001de6:	42a6      	cmp	r6, r4
 8001de8:	d800      	bhi.n	8001dec <z_sys_init_run_level+0x14>
				dev->state->init_res = rc;
			}
			dev->state->initialized = true;
		}
	}
}
 8001dea:	bd70      	pop	{r4, r5, r6, pc}
		int rc = entry->init(dev);
 8001dec:	e9d4 3500 	ldrd	r3, r5, [r4]
 8001df0:	4628      	mov	r0, r5
 8001df2:	4798      	blx	r3
		if (dev != NULL) {
 8001df4:	b16d      	cbz	r5, 8001e12 <z_sys_init_run_level+0x3a>
			if (rc != 0) {
 8001df6:	b138      	cbz	r0, 8001e08 <z_sys_init_run_level+0x30>
				if (rc < 0) {
 8001df8:	2800      	cmp	r0, #0
 8001dfa:	bfb8      	it	lt
 8001dfc:	4240      	neglt	r0, r0
				dev->state->init_res = rc;
 8001dfe:	68eb      	ldr	r3, [r5, #12]
				if (rc > UINT8_MAX) {
 8001e00:	28ff      	cmp	r0, #255	; 0xff
 8001e02:	bfa8      	it	ge
 8001e04:	20ff      	movge	r0, #255	; 0xff
				dev->state->init_res = rc;
 8001e06:	7018      	strb	r0, [r3, #0]
			dev->state->initialized = true;
 8001e08:	68ea      	ldr	r2, [r5, #12]
 8001e0a:	7853      	ldrb	r3, [r2, #1]
 8001e0c:	f043 0301 	orr.w	r3, r3, #1
 8001e10:	7053      	strb	r3, [r2, #1]
	for (entry = levels[level]; entry < levels[level+1]; entry++) {
 8001e12:	3408      	adds	r4, #8
 8001e14:	e7e7      	b.n	8001de6 <z_sys_init_run_level+0xe>
 8001e16:	bf00      	nop
 8001e18:	080034c0 	.word	0x080034c0

08001e1c <bg_thread_main>:
 * This routine completes kernel initialization by invoking the remaining
 * init functions, then invokes application's main() routine.
 */
__boot_func
static void bg_thread_main(void *unused1, void *unused2, void *unused3)
{
 8001e1c:	b508      	push	{r3, lr}
	 * may perform memory management tasks (except for z_phys_map() which
	 * is allowed at any time)
	 */
	z_mem_manage_init();
#endif /* CONFIG_MMU */
	z_sys_post_kernel = true;
 8001e1e:	4b0a      	ldr	r3, [pc, #40]	; (8001e48 <bg_thread_main+0x2c>)
 8001e20:	2201      	movs	r2, #1

	z_sys_init_run_level(_SYS_INIT_LEVEL_POST_KERNEL);
 8001e22:	2002      	movs	r0, #2
	z_sys_post_kernel = true;
 8001e24:	701a      	strb	r2, [r3, #0]
	z_sys_init_run_level(_SYS_INIT_LEVEL_POST_KERNEL);
 8001e26:	f7ff ffd7 	bl	8001dd8 <z_sys_init_run_level>
#if CONFIG_STACK_POINTER_RANDOM
	z_stack_adjust_initialized = 1;
#endif
	boot_banner();
 8001e2a:	f000 fc55 	bl	80026d8 <boot_banner>
	void z_cpp_init_static(void);
	z_cpp_init_static();
#endif

	/* Final init level before app starts */
	z_sys_init_run_level(_SYS_INIT_LEVEL_APPLICATION);
 8001e2e:	2003      	movs	r0, #3
 8001e30:	f7ff ffd2 	bl	8001dd8 <z_sys_init_run_level>

	z_init_static_threads();
 8001e34:	f000 f8ea 	bl	800200c <z_init_static_threads>
	z_mem_manage_boot_finish();
#endif /* CONFIG_MMU */

	extern void main(void);

	main();
 8001e38:	f7fe fb12 	bl	8000460 <main>

	/* Mark nonessential since main() has no more work to do */
	z_main_thread.base.user_options &= ~K_ESSENTIAL;
 8001e3c:	4a03      	ldr	r2, [pc, #12]	; (8001e4c <bg_thread_main+0x30>)
 8001e3e:	7b13      	ldrb	r3, [r2, #12]
 8001e40:	f023 0301 	bic.w	r3, r3, #1
 8001e44:	7313      	strb	r3, [r2, #12]

#ifdef CONFIG_COVERAGE_DUMP
	/* Dump coverage data once the main() has exited. */
	gcov_coverage_dump();
#endif
} /* LCOV_EXCL_LINE ... because we just dumped final coverage data */
 8001e46:	bd08      	pop	{r3, pc}
 8001e48:	20000271 	.word	0x20000271
 8001e4c:	200000d8 	.word	0x200000d8

08001e50 <z_bss_zero>:
{
 8001e50:	b508      	push	{r3, lr}
	z_early_memset(__bss_start, 0, __bss_end - __bss_start);
 8001e52:	4803      	ldr	r0, [pc, #12]	; (8001e60 <z_bss_zero+0x10>)
 8001e54:	4a03      	ldr	r2, [pc, #12]	; (8001e64 <z_bss_zero+0x14>)
 8001e56:	2100      	movs	r1, #0
 8001e58:	1a12      	subs	r2, r2, r0
 8001e5a:	f000 ffef 	bl	8002e3c <z_early_memset>
}
 8001e5e:	bd08      	pop	{r3, pc}
 8001e60:	20000058 	.word	0x20000058
 8001e64:	20000274 	.word	0x20000274

08001e68 <z_init_cpu>:
	thread->base.is_idle = 1U;
#endif
}

void z_init_cpu(int id)
{
 8001e68:	b570      	push	{r4, r5, r6, lr}
	z_setup_new_thread(thread, stack,
 8001e6a:	2300      	movs	r3, #0
{
 8001e6c:	b086      	sub	sp, #24
	z_setup_new_thread(thread, stack,
 8001e6e:	2201      	movs	r2, #1
 8001e70:	e9cd 2304 	strd	r2, r3, [sp, #16]
	struct k_thread *thread = &z_idle_threads[i];
 8001e74:	4e13      	ldr	r6, [pc, #76]	; (8001ec4 <z_init_cpu+0x5c>)
			  CONFIG_IDLE_STACK_SIZE, idle, &_kernel.cpus[i],
 8001e76:	4d14      	ldr	r5, [pc, #80]	; (8001ec8 <z_init_cpu+0x60>)
	z_setup_new_thread(thread, stack,
 8001e78:	9301      	str	r3, [sp, #4]
 8001e7a:	220f      	movs	r2, #15
 8001e7c:	e9cd 3202 	strd	r3, r2, [sp, #8]
 8001e80:	4912      	ldr	r1, [pc, #72]	; (8001ecc <z_init_cpu+0x64>)
			  CONFIG_IDLE_STACK_SIZE, idle, &_kernel.cpus[i],
 8001e82:	2318      	movs	r3, #24
 8001e84:	fb03 5500 	mla	r5, r3, r0, r5
	struct k_thread *thread = &z_idle_threads[i];
 8001e88:	eb06 16c0 	add.w	r6, r6, r0, lsl #7
{
 8001e8c:	4604      	mov	r4, r0
	z_setup_new_thread(thread, stack,
 8001e8e:	f44f 70c0 	mov.w	r0, #384	; 0x180
 8001e92:	fb00 1104 	mla	r1, r0, r4, r1
 8001e96:	4b0e      	ldr	r3, [pc, #56]	; (8001ed0 <z_init_cpu+0x68>)
 8001e98:	9500      	str	r5, [sp, #0]
 8001e9a:	f44f 72a0 	mov.w	r2, #320	; 0x140
 8001e9e:	4630      	mov	r0, r6
 8001ea0:	f000 f882 	bl	8001fa8 <z_setup_new_thread>
	SYS_PORT_TRACING_FUNC(k_thread, sched_resume, thread);
}

static inline void z_mark_thread_as_started(struct k_thread *thread)
{
	thread->base.thread_state &= ~_THREAD_PRESTART;
 8001ea4:	7b73      	ldrb	r3, [r6, #13]
	init_idle_thread(id);
	_kernel.cpus[id].idle_thread = &z_idle_threads[id];
	_kernel.cpus[id].id = id;
	_kernel.cpus[id].irq_stack =
		(Z_KERNEL_STACK_BUFFER(z_interrupt_stacks[id]) +
 8001ea6:	4a0b      	ldr	r2, [pc, #44]	; (8001ed4 <z_init_cpu+0x6c>)
	_kernel.cpus[id].idle_thread = &z_idle_threads[id];
 8001ea8:	60ee      	str	r6, [r5, #12]
 8001eaa:	f023 0304 	bic.w	r3, r3, #4
 8001eae:	7373      	strb	r3, [r6, #13]
		(Z_KERNEL_STACK_BUFFER(z_interrupt_stacks[id]) +
 8001eb0:	f44f 6304 	mov.w	r3, #2112	; 0x840
 8001eb4:	fb04 3303 	mla	r3, r4, r3, r3
 8001eb8:	4413      	add	r3, r2
	_kernel.cpus[id].id = id;
 8001eba:	752c      	strb	r4, [r5, #20]
	_kernel.cpus[id].irq_stack =
 8001ebc:	606b      	str	r3, [r5, #4]
		 K_KERNEL_STACK_SIZEOF(z_interrupt_stacks[id]));
#ifdef CONFIG_SCHED_THREAD_USAGE_ALL
	_kernel.cpus[id].usage.track_usage =
		CONFIG_SCHED_THREAD_USAGE_AUTO_ENABLE;
#endif
}
 8001ebe:	b006      	add	sp, #24
 8001ec0:	bd70      	pop	{r4, r5, r6, pc}
 8001ec2:	bf00      	nop
 8001ec4:	20000058 	.word	0x20000058
 8001ec8:	2000023c 	.word	0x2000023c
 8001ecc:	20000ac0 	.word	0x20000ac0
 8001ed0:	08002e45 	.word	0x08002e45
 8001ed4:	20000280 	.word	0x20000280

08001ed8 <z_cstart>:
 *
 * @return Does not return
 */
__boot_func
FUNC_NORETURN void z_cstart(void)
{
 8001ed8:	b580      	push	{r7, lr}
 * pointer) register, and switched to automatically when taking an exception.
 *
 */
static ALWAYS_INLINE void z_arm_interrupt_stack_setup(void)
{
	uint32_t msp =
 8001eda:	4b2c      	ldr	r3, [pc, #176]	; (8001f8c <z_cstart+0xb4>)
 8001edc:	b0a6      	sub	sp, #152	; 0x98
  \details Assigns the given value to the Main Stack Pointer (MSP).
  \param [in]    topOfMainStack  Main Stack Pointer value to set
 */
__STATIC_FORCEINLINE void __set_MSP(uint32_t topOfMainStack)
{
  __ASM volatile ("MSR msp, %0" : : "r" (topOfMainStack) : );
 8001ede:	f383 8808 	msr	MSP, r3
	 * for Cortex-M3 and Cortex-M4 (ARMv7-M) MCUs. For the rest
	 * of ARM Cortex-M processors this setting is enforced by
	 * default and it is not configurable.
	 */
#if defined(CONFIG_CPU_CORTEX_M3) || defined(CONFIG_CPU_CORTEX_M4)
	SCB->CCR |= SCB_CCR_STKALIGN_Msk;
 8001ee2:	4d2b      	ldr	r5, [pc, #172]	; (8001f90 <z_cstart+0xb8>)

#ifdef CONFIG_TIMESLICE_PER_THREAD
	dummy_thread->base.slice_ticks = 0;
#endif

	_current_cpu->current = dummy_thread;
 8001ee4:	4e2b      	ldr	r6, [pc, #172]	; (8001f94 <z_cstart+0xbc>)
 8001ee6:	696b      	ldr	r3, [r5, #20]
	stack_ptr = z_setup_new_thread(&z_main_thread, z_main_stack,
 8001ee8:	4f2b      	ldr	r7, [pc, #172]	; (8001f98 <z_cstart+0xc0>)
 8001eea:	f443 7300 	orr.w	r3, r3, #512	; 0x200
 8001eee:	2400      	movs	r4, #0
 8001ef0:	616b      	str	r3, [r5, #20]
 8001ef2:	23f0      	movs	r3, #240	; 0xf0
 8001ef4:	f885 3022 	strb.w	r3, [r5, #34]	; 0x22
 8001ef8:	77ec      	strb	r4, [r5, #31]
 8001efa:	762c      	strb	r4, [r5, #24]
 8001efc:	766c      	strb	r4, [r5, #25]
 8001efe:	76ac      	strb	r4, [r5, #26]
 8001f00:	f885 4020 	strb.w	r4, [r5, #32]
#if defined(CONFIG_ARM_SECURE_FIRMWARE)
	NVIC_SetPriority(SecureFault_IRQn, _EXC_FAULT_PRIO);
#endif /* CONFIG_ARM_SECURE_FIRMWARE */

	/* Enable Usage, Mem, & Bus Faults */
	SCB->SHCSR |= SCB_SHCSR_USGFAULTENA_Msk | SCB_SHCSR_MEMFAULTENA_Msk |
 8001f04:	6a6b      	ldr	r3, [r5, #36]	; 0x24
 8001f06:	f443 23e0 	orr.w	r3, r3, #458752	; 0x70000
 8001f0a:	626b      	str	r3, [r5, #36]	; 0x24

static ALWAYS_INLINE void arch_kernel_init(void)
{
	z_arm_interrupt_stack_setup();
	z_arm_exc_setup();
	z_arm_fault_init();
 8001f0c:	f7ff f8d0 	bl	80010b0 <z_arm_fault_init>
	z_arm_cpu_idle_init();
 8001f10:	f7fe feba 	bl	8000c88 <z_arm_cpu_idle_init>
static ALWAYS_INLINE void z_arm_clear_faults(void)
{
#if defined(CONFIG_ARMV6_M_ARMV8_M_BASELINE)
#elif defined(CONFIG_ARMV7_M_ARMV8_M_MAINLINE)
	/* Reset all faults */
	SCB->CFSR = SCB_CFSR_USGFAULTSR_Msk |
 8001f14:	f04f 33ff 	mov.w	r3, #4294967295
 8001f18:	62ab      	str	r3, [r5, #40]	; 0x28
		    SCB_CFSR_MEMFAULTSR_Msk |
		    SCB_CFSR_BUSFAULTSR_Msk;

	/* Clear all Hard Faults - HFSR is write-one-to-clear */
	SCB->HFSR = 0xffffffff;
 8001f1a:	62eb      	str	r3, [r5, #44]	; 0x2c
	z_arm_clear_faults();
#if defined(CONFIG_ARM_MPU)
	z_arm_mpu_init();
 8001f1c:	f7ff f9aa 	bl	8001274 <z_arm_mpu_init>
	 * to set up access permissions for fixed memory sections, such
	 * as Application Memory or No-Cacheable SRAM area.
	 *
	 * This function is invoked once, upon system initialization.
	 */
	z_arm_configure_static_mpu_regions();
 8001f20:	f7ff f910 	bl	8001144 <z_arm_configure_static_mpu_regions>
	dummy_thread->base.user_options = K_ESSENTIAL;
 8001f24:	f240 1301 	movw	r3, #257	; 0x101
 8001f28:	f8ad 3024 	strh.w	r3, [sp, #36]	; 0x24
	_current_cpu->current = dummy_thread;
 8001f2c:	ab06      	add	r3, sp, #24
 8001f2e:	60b3      	str	r3, [r6, #8]
	dummy_thread->stack_info.size = 0U;
 8001f30:	e9cd 441f 	strd	r4, r4, [sp, #124]	; 0x7c
	dummy_thread->resource_pool = NULL;
 8001f34:	9422      	str	r4, [sp, #136]	; 0x88
	struct k_thread dummy_thread;

	z_dummy_thread_init(&dummy_thread);
#endif
	/* do any necessary initialization of static devices */
	z_device_state_init();
 8001f36:	f000 ff4f 	bl	8002dd8 <z_device_state_init>

	/* perform basic hardware initialization */
	z_sys_init_run_level(_SYS_INIT_LEVEL_PRE_KERNEL_1);
 8001f3a:	4620      	mov	r0, r4
 8001f3c:	f7ff ff4c 	bl	8001dd8 <z_sys_init_run_level>
	z_sys_init_run_level(_SYS_INIT_LEVEL_PRE_KERNEL_2);
 8001f40:	2001      	movs	r0, #1
	_kernel.ready_q.cache = &z_main_thread;
 8001f42:	4d16      	ldr	r5, [pc, #88]	; (8001f9c <z_cstart+0xc4>)
	z_sys_init_run_level(_SYS_INIT_LEVEL_PRE_KERNEL_2);
 8001f44:	f7ff ff48 	bl	8001dd8 <z_sys_init_run_level>
	z_sched_init();
 8001f48:	f000 fa14 	bl	8002374 <z_sched_init>
	stack_ptr = z_setup_new_thread(&z_main_thread, z_main_stack,
 8001f4c:	4b14      	ldr	r3, [pc, #80]	; (8001fa0 <z_cstart+0xc8>)
	_kernel.ready_q.cache = &z_main_thread;
 8001f4e:	61b5      	str	r5, [r6, #24]
	stack_ptr = z_setup_new_thread(&z_main_thread, z_main_stack,
 8001f50:	9305      	str	r3, [sp, #20]
 8001f52:	2301      	movs	r3, #1
 8001f54:	4913      	ldr	r1, [pc, #76]	; (8001fa4 <z_cstart+0xcc>)
 8001f56:	9400      	str	r4, [sp, #0]
 8001f58:	e9cd 4303 	strd	r4, r3, [sp, #12]
 8001f5c:	f44f 6280 	mov.w	r2, #1024	; 0x400
 8001f60:	463b      	mov	r3, r7
 8001f62:	e9cd 4401 	strd	r4, r4, [sp, #4]
 8001f66:	4628      	mov	r0, r5
 8001f68:	f000 f81e 	bl	8001fa8 <z_setup_new_thread>
 8001f6c:	7b6a      	ldrb	r2, [r5, #13]
 8001f6e:	4606      	mov	r6, r0
 8001f70:	f022 0204 	bic.w	r2, r2, #4
	z_ready_thread(&z_main_thread);
 8001f74:	4628      	mov	r0, r5
 8001f76:	736a      	strb	r2, [r5, #13]
 8001f78:	f000 ffa4 	bl	8002ec4 <z_ready_thread>
	z_init_cpu(0);
 8001f7c:	4620      	mov	r0, r4
 8001f7e:	f7ff ff73 	bl	8001e68 <z_init_cpu>
	arch_switch_to_main_thread(&z_main_thread, stack_ptr, bg_thread_main);
 8001f82:	463a      	mov	r2, r7
 8001f84:	4631      	mov	r1, r6
 8001f86:	4628      	mov	r0, r5
 8001f88:	f7fe ff66 	bl	8000e58 <arch_switch_to_main_thread>
	CODE_UNREACHABLE; /* LCOV_EXCL_LINE */
 8001f8c:	20000ac0 	.word	0x20000ac0
 8001f90:	e000ed00 	.word	0xe000ed00
 8001f94:	2000023c 	.word	0x2000023c
 8001f98:	08001e1d 	.word	0x08001e1d
 8001f9c:	200000d8 	.word	0x200000d8
 8001fa0:	08003586 	.word	0x08003586
 8001fa4:	20000c40 	.word	0x20000c40

08001fa8 <z_setup_new_thread>:
char *z_setup_new_thread(struct k_thread *new_thread,
			 k_thread_stack_t *stack, size_t stack_size,
			 k_thread_entry_t entry,
			 void *p1, void *p2, void *p3,
			 int prio, uint32_t options, const char *name)
{
 8001fa8:	e92d 41ff 	stmdb	sp!, {r0, r1, r2, r3, r4, r5, r6, r7, r8, lr}
void z_init_thread_base(struct _thread_base *thread_base, int priority,
		       uint32_t initial_state, unsigned int options)
{
	/* k_q_node is initialized upon first insertion in a list */
	thread_base->pended_on = NULL;
	thread_base->user_options = (uint8_t)options;
 8001fac:	9e0e      	ldr	r6, [sp, #56]	; 0x38
 8001fae:	7306      	strb	r6, [r0, #12]
	thread_base->thread_state = (uint8_t)initial_state;
 8001fb0:	2604      	movs	r6, #4
 8001fb2:	7346      	strb	r6, [r0, #13]

	thread_base->prio = priority;
 8001fb4:	9e0d      	ldr	r6, [sp, #52]	; 0x34
 8001fb6:	7386      	strb	r6, [r0, #14]
	SYS_DLIST_FOR_EACH_CONTAINER(&((wq)->waitq), thread_ptr, \
				     base.qnode_dlist)

static inline void z_waitq_init(_wait_q_t *w)
{
	sys_dlist_init(&w->waitq);
 8001fb8:	f100 0558 	add.w	r5, r0, #88	; 0x58
{
 8001fbc:	460f      	mov	r7, r1
		stack_obj_size = Z_KERNEL_STACK_SIZE_ADJUST(stack_size);
 8001fbe:	1dd6      	adds	r6, r2, #7
 */

static inline void sys_dlist_init(sys_dlist_t *list)
{
	list->head = (sys_dnode_t *)list;
	list->tail = (sys_dnode_t *)list;
 8001fc0:	e9c0 5516 	strd	r5, r5, [r0, #88]	; 0x58
	arch_new_thread(new_thread, stack, stack_ptr, entry, p1, p2, p3);
 8001fc4:	9a0c      	ldr	r2, [sp, #48]	; 0x30
	thread_base->pended_on = NULL;
 8001fc6:	2500      	movs	r5, #0
		stack_obj_size = Z_KERNEL_STACK_SIZE_ADJUST(stack_size);
 8001fc8:	f026 0607 	bic.w	r6, r6, #7

/** @} */

static inline char *Z_KERNEL_STACK_BUFFER(k_thread_stack_t *sym)
{
	return (char *)sym + K_KERNEL_STACK_RESERVED;
 8001fcc:	3740      	adds	r7, #64	; 0x40
 */

static inline void sys_dnode_init(sys_dnode_t *node)
{
	node->next = NULL;
	node->prev = NULL;
 8001fce:	e9c0 5506 	strd	r5, r5, [r0, #24]
	new_thread->stack_info.size = stack_buf_size;
 8001fd2:	e9c0 7619 	strd	r7, r6, [r0, #100]	; 0x64
	thread_base->pended_on = NULL;
 8001fd6:	6085      	str	r5, [r0, #8]

	thread_base->sched_locked = 0U;
 8001fd8:	73c5      	strb	r5, [r0, #15]
	new_thread->stack_info.delta = delta;
 8001fda:	66c5      	str	r5, [r0, #108]	; 0x6c
		stack_obj_size = Z_KERNEL_STACK_SIZE_ADJUST(stack_size);
 8001fdc:	f106 0840 	add.w	r8, r6, #64	; 0x40
	arch_new_thread(new_thread, stack, stack_ptr, entry, p1, p2, p3);
 8001fe0:	9202      	str	r2, [sp, #8]
 8001fe2:	9a0b      	ldr	r2, [sp, #44]	; 0x2c
 8001fe4:	9201      	str	r2, [sp, #4]
	stack_ptr = (char *)stack + stack_obj_size;
 8001fe6:	4488      	add	r8, r1
	arch_new_thread(new_thread, stack, stack_ptr, entry, p1, p2, p3);
 8001fe8:	9a0a      	ldr	r2, [sp, #40]	; 0x28
 8001fea:	9200      	str	r2, [sp, #0]
 8001fec:	4642      	mov	r2, r8
{
 8001fee:	4604      	mov	r4, r0
	arch_new_thread(new_thread, stack, stack_ptr, entry, p1, p2, p3);
 8001ff0:	f7fe ff00 	bl	8000df4 <arch_new_thread>
	if (!_current) {
 8001ff4:	4b04      	ldr	r3, [pc, #16]	; (8002008 <z_setup_new_thread+0x60>)
	new_thread->init_data = NULL;
 8001ff6:	6565      	str	r5, [r4, #84]	; 0x54
	if (!_current) {
 8001ff8:	689b      	ldr	r3, [r3, #8]
 8001ffa:	b103      	cbz	r3, 8001ffe <z_setup_new_thread+0x56>
	new_thread->resource_pool = _current->resource_pool;
 8001ffc:	6f1b      	ldr	r3, [r3, #112]	; 0x70
	return stack_ptr;
 8001ffe:	6723      	str	r3, [r4, #112]	; 0x70
}
 8002000:	4640      	mov	r0, r8
 8002002:	b004      	add	sp, #16
 8002004:	e8bd 81f0 	ldmia.w	sp!, {r4, r5, r6, r7, r8, pc}
 8002008:	2000023c 	.word	0x2000023c

0800200c <z_init_static_threads>:
{
 800200c:	b5f0      	push	{r4, r5, r6, r7, lr}
 800200e:	4c22      	ldr	r4, [pc, #136]	; (8002098 <z_init_static_threads+0x8c>)
	_FOREACH_STATIC_THREAD(thread_data) {
 8002010:	4d22      	ldr	r5, [pc, #136]	; (800209c <z_init_static_threads+0x90>)
{
 8002012:	b087      	sub	sp, #28
 8002014:	4626      	mov	r6, r4
	_FOREACH_STATIC_THREAD(thread_data) {
 8002016:	42ae      	cmp	r6, r5
 8002018:	f104 0430 	add.w	r4, r4, #48	; 0x30
 800201c:	d30b      	bcc.n	8002036 <z_init_static_threads+0x2a>
	k_sched_lock();
 800201e:	f000 f979 	bl	8002314 <k_sched_lock>
	_FOREACH_STATIC_THREAD(thread_data) {
 8002022:	4c1d      	ldr	r4, [pc, #116]	; (8002098 <z_init_static_threads+0x8c>)

extern void z_thread_timeout(struct _timeout *timeout);

static inline void z_add_thread_timeout(struct k_thread *thread, k_timeout_t ticks)
{
	z_add_timeout(&thread->base.timeout, z_thread_timeout, ticks);
 8002024:	4f1e      	ldr	r7, [pc, #120]	; (80020a0 <z_init_static_threads+0x94>)
		}
	} else if (mul_ratio) {
		if (result32) {
			return ((uint32_t)t) * (to_hz / from_hz);
		} else {
			return t * ((uint64_t)to_hz / from_hz);
 8002026:	260a      	movs	r6, #10
 8002028:	42ac      	cmp	r4, r5
 800202a:	d320      	bcc.n	800206e <z_init_static_threads+0x62>
}
 800202c:	b007      	add	sp, #28
 800202e:	e8bd 40f0 	ldmia.w	sp!, {r4, r5, r6, r7, lr}
	k_sched_unlock();
 8002032:	f000 b983 	b.w	800233c <k_sched_unlock>
		z_setup_new_thread(
 8002036:	f854 3c04 	ldr.w	r3, [r4, #-4]
 800203a:	9305      	str	r3, [sp, #20]
 800203c:	f854 3c10 	ldr.w	r3, [r4, #-16]
 8002040:	9304      	str	r3, [sp, #16]
 8002042:	f854 3c14 	ldr.w	r3, [r4, #-20]
 8002046:	9303      	str	r3, [sp, #12]
 8002048:	f854 3c18 	ldr.w	r3, [r4, #-24]
 800204c:	9302      	str	r3, [sp, #8]
 800204e:	f854 3c1c 	ldr.w	r3, [r4, #-28]
 8002052:	9301      	str	r3, [sp, #4]
 8002054:	f854 3c20 	ldr.w	r3, [r4, #-32]
 8002058:	9300      	str	r3, [sp, #0]
 800205a:	e954 230a 	ldrd	r2, r3, [r4, #-40]	; 0x28
 800205e:	e954 010c 	ldrd	r0, r1, [r4, #-48]	; 0x30
 8002062:	f7ff ffa1 	bl	8001fa8 <z_setup_new_thread>
		thread_data->init_thread->init_data = thread_data;
 8002066:	f854 3c30 	ldr.w	r3, [r4, #-48]
 800206a:	655e      	str	r6, [r3, #84]	; 0x54
	_FOREACH_STATIC_THREAD(thread_data) {
 800206c:	e7d2      	b.n	8002014 <z_init_static_threads+0x8>
		if (thread_data->init_delay != K_TICKS_FOREVER) {
 800206e:	6a62      	ldr	r2, [r4, #36]	; 0x24
 8002070:	1c53      	adds	r3, r2, #1
 8002072:	d009      	beq.n	8002088 <z_init_static_threads+0x7c>
					    K_MSEC(thread_data->init_delay));
 8002074:	ea22 72e2 	bic.w	r2, r2, r2, asr #31
 8002078:	fb82 2306 	smull	r2, r3, r2, r6
	if (K_TIMEOUT_EQ(delay, K_NO_WAIT)) {
 800207c:	ea52 0103 	orrs.w	r1, r2, r3
			schedule_new_thread(thread_data->init_thread,
 8002080:	6820      	ldr	r0, [r4, #0]
	if (K_TIMEOUT_EQ(delay, K_NO_WAIT)) {
 8002082:	d103      	bne.n	800208c <z_init_static_threads+0x80>
	z_sched_start(thread);
 8002084:	f000 f928 	bl	80022d8 <z_sched_start>
	_FOREACH_STATIC_THREAD(thread_data) {
 8002088:	3430      	adds	r4, #48	; 0x30
 800208a:	e7cd      	b.n	8002028 <z_init_static_threads+0x1c>
 800208c:	4639      	mov	r1, r7
 800208e:	3018      	adds	r0, #24
 8002090:	f000 fa4a 	bl	8002528 <z_add_timeout>
 8002094:	e7f8      	b.n	8002088 <z_init_static_threads+0x7c>
 8002096:	bf00      	nop
 8002098:	20000054 	.word	0x20000054
 800209c:	20000054 	.word	0x20000054
 80020a0:	08002e81 	.word	0x08002e81

080020a4 <z_reset_time_slice>:
 */
static struct k_thread *pending_current;
#endif

void z_reset_time_slice(struct k_thread *curr)
{
 80020a4:	b538      	push	{r3, r4, r5, lr}
	int ret = slice_ticks;
 80020a6:	4d07      	ldr	r5, [pc, #28]	; (80020c4 <z_reset_time_slice+0x20>)
 80020a8:	682c      	ldr	r4, [r5, #0]
	/* Add the elapsed time since the last announced tick to the
	 * slice count, as we'll see those "expired" ticks arrive in a
	 * FUTURE z_time_slice() call.
	 */
	if (slice_time(curr) != 0) {
 80020aa:	b154      	cbz	r4, 80020c2 <z_reset_time_slice+0x1e>
		_current_cpu->slice_ticks = slice_time(curr) + sys_clock_elapsed();
 80020ac:	f7ff fd8e 	bl	8001bcc <sys_clock_elapsed>
 80020b0:	4b05      	ldr	r3, [pc, #20]	; (80020c8 <z_reset_time_slice+0x24>)
 80020b2:	4404      	add	r4, r0
 80020b4:	611c      	str	r4, [r3, #16]
		z_set_timeout_expiry(slice_time(curr), false);
 80020b6:	6828      	ldr	r0, [r5, #0]
 80020b8:	2100      	movs	r1, #0
	}
}
 80020ba:	e8bd 4038 	ldmia.w	sp!, {r3, r4, r5, lr}
		z_set_timeout_expiry(slice_time(curr), false);
 80020be:	f000 bf3d 	b.w	8002f3c <z_set_timeout_expiry>
}
 80020c2:	bd38      	pop	{r3, r4, r5, pc}
 80020c4:	20000268 	.word	0x20000268
 80020c8:	2000023c 	.word	0x2000023c

080020cc <update_cache>:
	}
#endif
}

static void update_cache(int preempt_ok)
{
 80020cc:	b538      	push	{r3, r4, r5, lr}
 * @return true if empty, false otherwise
 */

static inline bool sys_dlist_is_empty(sys_dlist_t *list)
{
	return list->head == list;
 80020ce:	4d0d      	ldr	r5, [pc, #52]	; (8002104 <update_cache+0x38>)
 80020d0:	462b      	mov	r3, r5
 80020d2:	f853 4f1c 	ldr.w	r4, [r3, #28]!
 * @return a pointer to the head element, NULL if list is empty
 */

static inline sys_dnode_t *sys_dlist_peek_head(sys_dlist_t *list)
{
	return sys_dlist_is_empty(list) ? NULL : list->head;
 80020d6:	429c      	cmp	r4, r3
 80020d8:	d000      	beq.n	80020dc <update_cache+0x10>
	return (thread != NULL) ? thread : _current_cpu->idle_thread;
 80020da:	b904      	cbnz	r4, 80020de <update_cache+0x12>
 80020dc:	68ec      	ldr	r4, [r5, #12]
	if (z_is_thread_prevented_from_running(_current)) {
 80020de:	68ab      	ldr	r3, [r5, #8]
	if (preempt_ok != 0) {
 80020e0:	b938      	cbnz	r0, 80020f2 <update_cache+0x26>
	if (z_is_thread_prevented_from_running(_current)) {
 80020e2:	7b5a      	ldrb	r2, [r3, #13]
 80020e4:	06d2      	lsls	r2, r2, #27
 80020e6:	d104      	bne.n	80020f2 <update_cache+0x26>
	if (IS_ENABLED(CONFIG_SWAP_NONATOMIC)
 80020e8:	69a2      	ldr	r2, [r4, #24]
 80020ea:	b912      	cbnz	r2, 80020f2 <update_cache+0x26>
	if (is_preempt(_current) || is_metairq(thread)) {
 80020ec:	89da      	ldrh	r2, [r3, #14]
 80020ee:	2a7f      	cmp	r2, #127	; 0x7f
 80020f0:	d805      	bhi.n	80020fe <update_cache+0x32>
#ifndef CONFIG_SMP
	struct k_thread *thread = next_up();

	if (should_preempt(thread, preempt_ok)) {
#ifdef CONFIG_TIMESLICING
		if (thread != _current) {
 80020f2:	429c      	cmp	r4, r3
 80020f4:	d002      	beq.n	80020fc <update_cache+0x30>
			z_reset_time_slice(thread);
 80020f6:	4620      	mov	r0, r4
 80020f8:	f7ff ffd4 	bl	80020a4 <z_reset_time_slice>
		}
#endif
		update_metairq_preempt(thread);
		_kernel.ready_q.cache = thread;
 80020fc:	4623      	mov	r3, r4
 80020fe:	61ab      	str	r3, [r5, #24]
	 * thread because if the thread gets preempted for whatever
	 * reason the scheduler will make the same decision anyway.
	 */
	_current_cpu->swap_ok = preempt_ok;
#endif
}
 8002100:	bd38      	pop	{r3, r4, r5, pc}
 8002102:	bf00      	nop
 8002104:	2000023c 	.word	0x2000023c

08002108 <move_thread_to_end_of_prio_q>:
{
 8002108:	b570      	push	{r4, r5, r6, lr}
	if (z_is_thread_queued(thread)) {
 800210a:	f990 200d 	ldrsb.w	r2, [r0, #13]
	return (thread->base.thread_state & state) != 0U;
 800210e:	7b43      	ldrb	r3, [r0, #13]
 8002110:	2a00      	cmp	r2, #0
{
 8002112:	4601      	mov	r1, r0
	if (z_is_thread_queued(thread)) {
 8002114:	da04      	bge.n	8002120 <move_thread_to_end_of_prio_q+0x18>
	thread->base.thread_state &= ~_THREAD_QUEUED;
 8002116:	f003 037f 	and.w	r3, r3, #127	; 0x7f
 800211a:	7343      	strb	r3, [r0, #13]

void z_priq_dumb_remove(sys_dlist_t *pq, struct k_thread *thread)
{
	__ASSERT_NO_MSG(!z_is_idle_thread_object(thread));

	sys_dlist_remove(&thread->base.qnode_dlist);
 800211c:	f000 fe9e 	bl	8002e5c <sys_dlist_remove>
	thread->base.thread_state |= _THREAD_QUEUED;
 8002120:	7b4b      	ldrb	r3, [r1, #13]
	return list->head == list;
 8002122:	4a15      	ldr	r2, [pc, #84]	; (8002178 <move_thread_to_end_of_prio_q+0x70>)
 8002124:	f063 037f 	orn	r3, r3, #127	; 0x7f
 8002128:	4610      	mov	r0, r2
 800212a:	734b      	strb	r3, [r1, #13]
 800212c:	f850 3f1c 	ldr.w	r3, [r0, #28]!
 */

static inline sys_dnode_t *sys_dlist_peek_next_no_check(sys_dlist_t *list,
							sys_dnode_t *node)
{
	return (node == list->tail) ? NULL : node->next;
 8002130:	6a14      	ldr	r4, [r2, #32]
	return sys_dlist_is_empty(list) ? NULL : list->head;
 8002132:	4283      	cmp	r3, r0
 8002134:	bf08      	it	eq
 8002136:	2300      	moveq	r3, #0
	SYS_DLIST_FOR_EACH_CONTAINER(pq, t, base.qnode_dlist) {
 8002138:	b923      	cbnz	r3, 8002144 <move_thread_to_end_of_prio_q+0x3c>
static inline void sys_dlist_append(sys_dlist_t *list, sys_dnode_t *node)
{
	sys_dnode_t *const tail = list->tail;

	node->next = list;
	node->prev = tail;
 800213a:	e9c1 0400 	strd	r0, r4, [r1]

	tail->next = node;
 800213e:	6021      	str	r1, [r4, #0]
	list->tail = node;
 8002140:	6211      	str	r1, [r2, #32]
}
 8002142:	e00c      	b.n	800215e <move_thread_to_end_of_prio_q+0x56>
	int32_t b1 = thread_1->base.prio;
 8002144:	f991 500e 	ldrsb.w	r5, [r1, #14]
	int32_t b2 = thread_2->base.prio;
 8002148:	f993 600e 	ldrsb.w	r6, [r3, #14]
	if (b1 != b2) {
 800214c:	42b5      	cmp	r5, r6
 800214e:	d00e      	beq.n	800216e <move_thread_to_end_of_prio_q+0x66>
		if (z_sched_prio_cmp(thread, t) > 0) {
 8002150:	42ae      	cmp	r6, r5
 8002152:	dd0c      	ble.n	800216e <move_thread_to_end_of_prio_q+0x66>
 * @param successor the position before which "node" will be inserted
 * @param node the element to insert
 */
static inline void sys_dlist_insert(sys_dnode_t *successor, sys_dnode_t *node)
{
	sys_dnode_t *const prev = successor->prev;
 8002154:	6858      	ldr	r0, [r3, #4]

	node->prev = prev;
	node->next = successor;
 8002156:	e9c1 3000 	strd	r3, r0, [r1]
	prev->next = node;
 800215a:	6001      	str	r1, [r0, #0]
	successor->prev = node;
 800215c:	6059      	str	r1, [r3, #4]
	update_cache(thread == _current);
 800215e:	6890      	ldr	r0, [r2, #8]
 8002160:	1a43      	subs	r3, r0, r1
 8002162:	4258      	negs	r0, r3
}
 8002164:	e8bd 4070 	ldmia.w	sp!, {r4, r5, r6, lr}
	update_cache(thread == _current);
 8002168:	4158      	adcs	r0, r3
 800216a:	f7ff bfaf 	b.w	80020cc <update_cache>
	return (node == list->tail) ? NULL : node->next;
 800216e:	429c      	cmp	r4, r3
 8002170:	d0e3      	beq.n	800213a <move_thread_to_end_of_prio_q+0x32>
 8002172:	681b      	ldr	r3, [r3, #0]
 8002174:	e7e0      	b.n	8002138 <move_thread_to_end_of_prio_q+0x30>
 8002176:	bf00      	nop
 8002178:	2000023c 	.word	0x2000023c

0800217c <ready_thread>:
{
 800217c:	b470      	push	{r4, r5, r6}
	if (!z_is_thread_queued(thread) && z_is_thread_ready(thread)) {
 800217e:	f990 300d 	ldrsb.w	r3, [r0, #13]
 8002182:	7b42      	ldrb	r2, [r0, #13]
 8002184:	2b00      	cmp	r3, #0
 8002186:	db29      	blt.n	80021dc <ready_thread+0x60>
	return !((z_is_thread_prevented_from_running(thread)) != 0U ||
 8002188:	06d3      	lsls	r3, r2, #27
 800218a:	d127      	bne.n	80021dc <ready_thread+0x60>
	return node->next != NULL;
 800218c:	6983      	ldr	r3, [r0, #24]
 800218e:	bb2b      	cbnz	r3, 80021dc <ready_thread+0x60>
	return list->head == list;
 8002190:	4913      	ldr	r1, [pc, #76]	; (80021e0 <ready_thread+0x64>)
	thread->base.thread_state |= _THREAD_QUEUED;
 8002192:	f062 027f 	orn	r2, r2, #127	; 0x7f
 8002196:	7342      	strb	r2, [r0, #13]
 8002198:	460a      	mov	r2, r1
 800219a:	f852 4f1c 	ldr.w	r4, [r2, #28]!
	return sys_dlist_is_empty(list) ? NULL : list->head;
 800219e:	4294      	cmp	r4, r2
 80021a0:	bf18      	it	ne
 80021a2:	4623      	movne	r3, r4
	return (node == list->tail) ? NULL : node->next;
 80021a4:	6a0c      	ldr	r4, [r1, #32]
	SYS_DLIST_FOR_EACH_CONTAINER(pq, t, base.qnode_dlist) {
 80021a6:	b923      	cbnz	r3, 80021b2 <ready_thread+0x36>
	node->prev = tail;
 80021a8:	e9c0 2400 	strd	r2, r4, [r0]
	tail->next = node;
 80021ac:	6020      	str	r0, [r4, #0]
	list->tail = node;
 80021ae:	6208      	str	r0, [r1, #32]
}
 80021b0:	e00c      	b.n	80021cc <ready_thread+0x50>
	int32_t b1 = thread_1->base.prio;
 80021b2:	f990 500e 	ldrsb.w	r5, [r0, #14]
	int32_t b2 = thread_2->base.prio;
 80021b6:	f993 600e 	ldrsb.w	r6, [r3, #14]
	if (b1 != b2) {
 80021ba:	42b5      	cmp	r5, r6
 80021bc:	d00a      	beq.n	80021d4 <ready_thread+0x58>
		if (z_sched_prio_cmp(thread, t) > 0) {
 80021be:	42ae      	cmp	r6, r5
 80021c0:	dd08      	ble.n	80021d4 <ready_thread+0x58>
	sys_dnode_t *const prev = successor->prev;
 80021c2:	685a      	ldr	r2, [r3, #4]
	node->next = successor;
 80021c4:	e9c0 3200 	strd	r3, r2, [r0]
	prev->next = node;
 80021c8:	6010      	str	r0, [r2, #0]
	successor->prev = node;
 80021ca:	6058      	str	r0, [r3, #4]
}
 80021cc:	bc70      	pop	{r4, r5, r6}
		update_cache(0);
 80021ce:	2000      	movs	r0, #0
 80021d0:	f7ff bf7c 	b.w	80020cc <update_cache>
	return (node == list->tail) ? NULL : node->next;
 80021d4:	42a3      	cmp	r3, r4
 80021d6:	d0e7      	beq.n	80021a8 <ready_thread+0x2c>
 80021d8:	681b      	ldr	r3, [r3, #0]
 80021da:	e7e4      	b.n	80021a6 <ready_thread+0x2a>
}
 80021dc:	bc70      	pop	{r4, r5, r6}
 80021de:	4770      	bx	lr
 80021e0:	2000023c 	.word	0x2000023c

080021e4 <k_sched_time_slice_set>:
{
 80021e4:	b510      	push	{r4, lr}
	__asm__ volatile(
 80021e6:	f04f 0310 	mov.w	r3, #16
 80021ea:	f3ef 8411 	mrs	r4, BASEPRI
 80021ee:	f383 8812 	msr	BASEPRI_MAX, r3
 80021f2:	f3bf 8f6f 	isb	sy
			return ((uint32_t)t) * (to_hz / from_hz);
 80021f6:	230a      	movs	r3, #10
		if (IS_ENABLED(CONFIG_TICKLESS_KERNEL) && slice > 0) {
 80021f8:	2800      	cmp	r0, #0
 80021fa:	fb00 f303 	mul.w	r3, r0, r3
 80021fe:	dd02      	ble.n	8002206 <k_sched_time_slice_set+0x22>
			slice_ticks = MAX(2, slice_ticks);
 8002200:	2b02      	cmp	r3, #2
 8002202:	bfb8      	it	lt
 8002204:	2302      	movlt	r3, #2
		_current_cpu->slice_ticks = 0;
 8002206:	4a07      	ldr	r2, [pc, #28]	; (8002224 <k_sched_time_slice_set+0x40>)
 8002208:	2000      	movs	r0, #0
 800220a:	6110      	str	r0, [r2, #16]
		slice_ticks = k_ms_to_ticks_ceil32(slice);
 800220c:	4806      	ldr	r0, [pc, #24]	; (8002228 <k_sched_time_slice_set+0x44>)
 800220e:	6003      	str	r3, [r0, #0]
		slice_max_prio = prio;
 8002210:	4b06      	ldr	r3, [pc, #24]	; (800222c <k_sched_time_slice_set+0x48>)
		z_reset_time_slice(_current);
 8002212:	6890      	ldr	r0, [r2, #8]
		slice_max_prio = prio;
 8002214:	6019      	str	r1, [r3, #0]
		z_reset_time_slice(_current);
 8002216:	f7ff ff45 	bl	80020a4 <z_reset_time_slice>
	__asm__ volatile(
 800221a:	f384 8811 	msr	BASEPRI, r4
 800221e:	f3bf 8f6f 	isb	sy
}
 8002222:	bd10      	pop	{r4, pc}
 8002224:	2000023c 	.word	0x2000023c
 8002228:	20000268 	.word	0x20000268
 800222c:	20000264 	.word	0x20000264

08002230 <z_time_slice>:
{
 8002230:	b538      	push	{r3, r4, r5, lr}
	__asm__ volatile(
 8002232:	f04f 0310 	mov.w	r3, #16
 8002236:	f3ef 8511 	mrs	r5, BASEPRI
 800223a:	f383 8812 	msr	BASEPRI_MAX, r3
 800223e:	f3bf 8f6f 	isb	sy
	if (pending_current == _current) {
 8002242:	4b17      	ldr	r3, [pc, #92]	; (80022a0 <z_time_slice+0x70>)
 8002244:	4a17      	ldr	r2, [pc, #92]	; (80022a4 <z_time_slice+0x74>)
 8002246:	689c      	ldr	r4, [r3, #8]
 8002248:	6811      	ldr	r1, [r2, #0]
 800224a:	428c      	cmp	r4, r1
 800224c:	d107      	bne.n	800225e <z_time_slice+0x2e>
	z_reset_time_slice(curr);
 800224e:	4620      	mov	r0, r4
 8002250:	f7ff ff28 	bl	80020a4 <z_reset_time_slice>
	__asm__ volatile(
 8002254:	f385 8811 	msr	BASEPRI, r5
 8002258:	f3bf 8f6f 	isb	sy
}
 800225c:	bd38      	pop	{r3, r4, r5, pc}
	pending_current = NULL;
 800225e:	2100      	movs	r1, #0
 8002260:	6011      	str	r1, [r2, #0]
	int ret = slice_ticks;
 8002262:	4a11      	ldr	r2, [pc, #68]	; (80022a8 <z_time_slice+0x78>)
	if (slice_time(_current) && sliceable(_current)) {
 8002264:	6812      	ldr	r2, [r2, #0]
 8002266:	b1c2      	cbz	r2, 800229a <z_time_slice+0x6a>
		&& !z_is_idle_thread_object(thread);
 8002268:	89e2      	ldrh	r2, [r4, #14]
 800226a:	2a7f      	cmp	r2, #127	; 0x7f
 800226c:	d815      	bhi.n	800229a <z_time_slice+0x6a>
		&& !z_is_thread_prevented_from_running(thread)
 800226e:	7b62      	ldrb	r2, [r4, #13]
 8002270:	06d2      	lsls	r2, r2, #27
 8002272:	d112      	bne.n	800229a <z_time_slice+0x6a>
		&& !z_is_prio_higher(thread->base.prio, slice_max_prio)
 8002274:	4a0d      	ldr	r2, [pc, #52]	; (80022ac <z_time_slice+0x7c>)
 8002276:	f994 100e 	ldrsb.w	r1, [r4, #14]
 800227a:	6812      	ldr	r2, [r2, #0]
 800227c:	4291      	cmp	r1, r2
 800227e:	db0c      	blt.n	800229a <z_time_slice+0x6a>
		&& !z_is_idle_thread_object(thread);
 8002280:	4a0b      	ldr	r2, [pc, #44]	; (80022b0 <z_time_slice+0x80>)
 8002282:	4294      	cmp	r4, r2
 8002284:	d009      	beq.n	800229a <z_time_slice+0x6a>
		if (ticks >= _current_cpu->slice_ticks) {
 8002286:	691a      	ldr	r2, [r3, #16]
 8002288:	4282      	cmp	r2, r0
 800228a:	dc03      	bgt.n	8002294 <z_time_slice+0x64>
		move_thread_to_end_of_prio_q(curr);
 800228c:	4620      	mov	r0, r4
 800228e:	f7ff ff3b 	bl	8002108 <move_thread_to_end_of_prio_q>
 8002292:	e7dc      	b.n	800224e <z_time_slice+0x1e>
			_current_cpu->slice_ticks -= ticks;
 8002294:	1a12      	subs	r2, r2, r0
		_current_cpu->slice_ticks = 0;
 8002296:	611a      	str	r2, [r3, #16]
 8002298:	e7dc      	b.n	8002254 <z_time_slice+0x24>
 800229a:	2200      	movs	r2, #0
 800229c:	e7fb      	b.n	8002296 <z_time_slice+0x66>
 800229e:	bf00      	nop
 80022a0:	2000023c 	.word	0x2000023c
 80022a4:	20000260 	.word	0x20000260
 80022a8:	20000268 	.word	0x20000268
 80022ac:	20000264 	.word	0x20000264
 80022b0:	20000058 	.word	0x20000058

080022b4 <z_reschedule>:
	return arch_irq_unlocked(key) && !arch_is_in_isr();
 80022b4:	b949      	cbnz	r1, 80022ca <z_reschedule+0x16>
  __ASM volatile ("MRS %0, ipsr" : "=r" (result) );
 80022b6:	f3ef 8005 	mrs	r0, IPSR
 80022ba:	b930      	cbnz	r0, 80022ca <z_reschedule+0x16>
	new_thread = _kernel.ready_q.cache;
 80022bc:	4b05      	ldr	r3, [pc, #20]	; (80022d4 <z_reschedule+0x20>)
	if (resched(key.key) && need_swap()) {
 80022be:	699a      	ldr	r2, [r3, #24]
 80022c0:	689b      	ldr	r3, [r3, #8]
 80022c2:	429a      	cmp	r2, r3
 80022c4:	d001      	beq.n	80022ca <z_reschedule+0x16>
	ret = arch_swap(key);
 80022c6:	f7fe bd41 	b.w	8000d4c <arch_swap>
 80022ca:	f381 8811 	msr	BASEPRI, r1
 80022ce:	f3bf 8f6f 	isb	sy
}
 80022d2:	4770      	bx	lr
 80022d4:	2000023c 	.word	0x2000023c

080022d8 <z_sched_start>:
{
 80022d8:	b510      	push	{r4, lr}
	__asm__ volatile(
 80022da:	f04f 0210 	mov.w	r2, #16
 80022de:	f3ef 8411 	mrs	r4, BASEPRI
 80022e2:	f382 8812 	msr	BASEPRI_MAX, r2
 80022e6:	f3bf 8f6f 	isb	sy
	return (thread->base.thread_state & _THREAD_PRESTART) == 0U;
 80022ea:	7b42      	ldrb	r2, [r0, #13]
	if (z_has_thread_started(thread)) {
 80022ec:	0751      	lsls	r1, r2, #29
 80022ee:	d404      	bmi.n	80022fa <z_sched_start+0x22>
	__asm__ volatile(
 80022f0:	f384 8811 	msr	BASEPRI, r4
 80022f4:	f3bf 8f6f 	isb	sy
}
 80022f8:	bd10      	pop	{r4, pc}
	thread->base.thread_state &= ~_THREAD_PRESTART;
 80022fa:	f022 0204 	bic.w	r2, r2, #4
 80022fe:	7342      	strb	r2, [r0, #13]
	ready_thread(thread);
 8002300:	f7ff ff3c 	bl	800217c <ready_thread>
	z_reschedule(&sched_spinlock, key);
 8002304:	4621      	mov	r1, r4
 8002306:	4802      	ldr	r0, [pc, #8]	; (8002310 <z_sched_start+0x38>)
}
 8002308:	e8bd 4010 	ldmia.w	sp!, {r4, lr}
	z_reschedule(&sched_spinlock, key);
 800230c:	f7ff bfd2 	b.w	80022b4 <z_reschedule>
 8002310:	20000272 	.word	0x20000272

08002314 <k_sched_lock>:
	__asm__ volatile(
 8002314:	f04f 0310 	mov.w	r3, #16
 8002318:	f3ef 8111 	mrs	r1, BASEPRI
 800231c:	f383 8812 	msr	BASEPRI_MAX, r3
 8002320:	f3bf 8f6f 	isb	sy
static inline void z_sched_lock(void)
{
	__ASSERT(!arch_is_in_isr(), "");
	__ASSERT(_current->base.sched_locked != 1U, "");

	--_current->base.sched_locked;
 8002324:	4b04      	ldr	r3, [pc, #16]	; (8002338 <k_sched_lock+0x24>)
 8002326:	689a      	ldr	r2, [r3, #8]
 8002328:	7bd3      	ldrb	r3, [r2, #15]
 800232a:	3b01      	subs	r3, #1
 800232c:	73d3      	strb	r3, [r2, #15]
	__asm__ volatile(
 800232e:	f381 8811 	msr	BASEPRI, r1
 8002332:	f3bf 8f6f 	isb	sy
}
 8002336:	4770      	bx	lr
 8002338:	2000023c 	.word	0x2000023c

0800233c <k_sched_unlock>:
{
 800233c:	b510      	push	{r4, lr}
	__asm__ volatile(
 800233e:	f04f 0310 	mov.w	r3, #16
 8002342:	f3ef 8411 	mrs	r4, BASEPRI
 8002346:	f383 8812 	msr	BASEPRI_MAX, r3
 800234a:	f3bf 8f6f 	isb	sy
		++_current->base.sched_locked;
 800234e:	4b08      	ldr	r3, [pc, #32]	; (8002370 <k_sched_unlock+0x34>)
 8002350:	689a      	ldr	r2, [r3, #8]
 8002352:	7bd3      	ldrb	r3, [r2, #15]
 8002354:	3301      	adds	r3, #1
 8002356:	73d3      	strb	r3, [r2, #15]
		update_cache(0);
 8002358:	2000      	movs	r0, #0
 800235a:	f7ff feb7 	bl	80020cc <update_cache>
	__asm__ volatile(
 800235e:	f384 8811 	msr	BASEPRI, r4
 8002362:	f3bf 8f6f 	isb	sy
}
 8002366:	e8bd 4010 	ldmia.w	sp!, {r4, lr}
	z_reschedule_unlocked();
 800236a:	f000 bdc7 	b.w	8002efc <z_reschedule_unlocked>
 800236e:	bf00      	nop
 8002370:	2000023c 	.word	0x2000023c

08002374 <z_sched_init>:
	list->head = (sys_dnode_t *)list;
 8002374:	4b04      	ldr	r3, [pc, #16]	; (8002388 <z_sched_init+0x14>)
#else
	init_ready_q(&_kernel.ready_q);
#endif

#ifdef CONFIG_TIMESLICING
	k_sched_time_slice_set(CONFIG_TIMESLICE_SIZE,
 8002376:	2100      	movs	r1, #0
 8002378:	f103 021c 	add.w	r2, r3, #28
	list->tail = (sys_dnode_t *)list;
 800237c:	e9c3 2207 	strd	r2, r2, [r3, #28]
 8002380:	4608      	mov	r0, r1
 8002382:	f7ff bf2f 	b.w	80021e4 <k_sched_time_slice_set>
 8002386:	bf00      	nop
 8002388:	2000023c 	.word	0x2000023c

0800238c <z_impl_z_current_get>:

#ifdef CONFIG_SMP
	arch_irq_unlock(k);
#endif
	return ret;
}
 800238c:	4b01      	ldr	r3, [pc, #4]	; (8002394 <z_impl_z_current_get+0x8>)
 800238e:	6898      	ldr	r0, [r3, #8]
 8002390:	4770      	bx	lr
 8002392:	bf00      	nop
 8002394:	2000023c 	.word	0x2000023c

08002398 <z_thread_abort>:
#endif
	}
}

void z_thread_abort(struct k_thread *thread)
{
 8002398:	e92d 41f0 	stmdb	sp!, {r4, r5, r6, r7, r8, lr}
 800239c:	4604      	mov	r4, r0
	__asm__ volatile(
 800239e:	f04f 0310 	mov.w	r3, #16
 80023a2:	f3ef 8611 	mrs	r6, BASEPRI
 80023a6:	f383 8812 	msr	BASEPRI_MAX, r3
 80023aa:	f3bf 8f6f 	isb	sy
	k_spinlock_key_t key = k_spin_lock(&sched_spinlock);

	if ((thread->base.user_options & K_ESSENTIAL) != 0) {
 80023ae:	7b03      	ldrb	r3, [r0, #12]
 80023b0:	07d9      	lsls	r1, r3, #31
 80023b2:	d50b      	bpl.n	80023cc <z_thread_abort+0x34>
	__asm__ volatile(
 80023b4:	f386 8811 	msr	BASEPRI, r6
 80023b8:	f3bf 8f6f 	isb	sy
		k_spin_unlock(&sched_spinlock, key);
		__ASSERT(false, "aborting essential thread %p", thread);
		k_panic();
 80023bc:	4040      	eors	r0, r0
 80023be:	f380 8811 	msr	BASEPRI, r0
 80023c2:	f04f 0004 	mov.w	r0, #4
 80023c6:	df02      	svc	2
	if (thread == _current && !arch_is_in_isr()) {
		z_swap(&sched_spinlock, key);
		__ASSERT(false, "aborted _current back from dead");
	}
	k_spin_unlock(&sched_spinlock, key);
}
 80023c8:	e8bd 81f0 	ldmia.w	sp!, {r4, r5, r6, r7, r8, pc}
	if ((thread->base.thread_state & _THREAD_DEAD) != 0U) {
 80023cc:	7b43      	ldrb	r3, [r0, #13]
 80023ce:	071a      	lsls	r2, r3, #28
 80023d0:	d504      	bpl.n	80023dc <z_thread_abort+0x44>
 80023d2:	f386 8811 	msr	BASEPRI, r6
 80023d6:	f3bf 8f6f 	isb	sy
 80023da:	e7f5      	b.n	80023c8 <z_thread_abort+0x30>
		thread->base.thread_state &= ~_THREAD_ABORTING;
 80023dc:	f023 0220 	bic.w	r2, r3, #32
 80023e0:	f042 0108 	orr.w	r1, r2, #8
		if (z_is_thread_queued(thread)) {
 80023e4:	09d2      	lsrs	r2, r2, #7
 80023e6:	d120      	bne.n	800242a <z_thread_abort+0x92>
		thread->base.thread_state &= ~_THREAD_ABORTING;
 80023e8:	7341      	strb	r1, [r0, #13]
		if (thread->base.pended_on != NULL) {
 80023ea:	68a3      	ldr	r3, [r4, #8]
 80023ec:	b113      	cbz	r3, 80023f4 <z_thread_abort+0x5c>
			unpend_thread_no_timeout(thread);
 80023ee:	4620      	mov	r0, r4
 80023f0:	f000 fd3c 	bl	8002e6c <unpend_thread_no_timeout>
}

static inline int z_abort_thread_timeout(struct k_thread *thread)
{
	return z_abort_timeout(&thread->base.timeout);
 80023f4:	f104 0018 	add.w	r0, r4, #24
 80023f8:	f000 fd8a 	bl	8002f10 <z_abort_timeout>
}

static inline struct k_thread *z_waitq_head(_wait_q_t *w)
{
	return (struct k_thread *)sys_dlist_peek_head(&w->waitq);
 80023fc:	f104 0758 	add.w	r7, r4, #88	; 0x58
}

static ALWAYS_INLINE void
arch_thread_return_value_set(struct k_thread *thread, unsigned int value)
{
	thread->arch.swap_return_value = value;
 8002400:	f04f 0800 	mov.w	r8, #0
	return list->head == list;
 8002404:	6da5      	ldr	r5, [r4, #88]	; 0x58
	return sys_dlist_is_empty(list) ? NULL : list->head;
 8002406:	42bd      	cmp	r5, r7
 8002408:	d000      	beq.n	800240c <z_thread_abort+0x74>
	while ((thread = z_waitq_head(wait_q)) != NULL) {
 800240a:	b9b5      	cbnz	r5, 800243a <z_thread_abort+0xa2>
		update_cache(1);
 800240c:	2001      	movs	r0, #1
 800240e:	f7ff fe5d 	bl	80020cc <update_cache>
	if (thread == _current && !arch_is_in_isr()) {
 8002412:	4b10      	ldr	r3, [pc, #64]	; (8002454 <z_thread_abort+0xbc>)
 8002414:	689b      	ldr	r3, [r3, #8]
 8002416:	42a3      	cmp	r3, r4
 8002418:	d1db      	bne.n	80023d2 <z_thread_abort+0x3a>
 800241a:	f3ef 8305 	mrs	r3, IPSR
 800241e:	2b00      	cmp	r3, #0
 8002420:	d1d7      	bne.n	80023d2 <z_thread_abort+0x3a>
 8002422:	4630      	mov	r0, r6
 8002424:	f7fe fc92 	bl	8000d4c <arch_swap>
	return ret;
 8002428:	e7d3      	b.n	80023d2 <z_thread_abort+0x3a>
	thread->base.thread_state &= ~_THREAD_QUEUED;
 800242a:	f003 035f 	and.w	r3, r3, #95	; 0x5f
 800242e:	f043 0308 	orr.w	r3, r3, #8
 8002432:	7343      	strb	r3, [r0, #13]
	sys_dlist_remove(&thread->base.qnode_dlist);
 8002434:	f000 fd12 	bl	8002e5c <sys_dlist_remove>
}
 8002438:	e7d7      	b.n	80023ea <z_thread_abort+0x52>
		unpend_thread_no_timeout(thread);
 800243a:	4628      	mov	r0, r5
 800243c:	f000 fd16 	bl	8002e6c <unpend_thread_no_timeout>
 8002440:	f105 0018 	add.w	r0, r5, #24
 8002444:	f000 fd64 	bl	8002f10 <z_abort_timeout>
 8002448:	f8c5 8078 	str.w	r8, [r5, #120]	; 0x78
		ready_thread(thread);
 800244c:	4628      	mov	r0, r5
 800244e:	f7ff fe95 	bl	800217c <ready_thread>
 8002452:	e7d7      	b.n	8002404 <z_thread_abort+0x6c>
 8002454:	2000023c 	.word	0x2000023c

08002458 <z_data_copy>:
 * @brief Copy the data section from ROM to RAM
 *
 * This routine copies the data section from ROM to RAM.
 */
void z_data_copy(void)
{
 8002458:	b508      	push	{r3, lr}
	z_early_memcpy(&__data_region_start, &__data_region_load_start,
		       __data_region_end - __data_region_start);
 800245a:	4806      	ldr	r0, [pc, #24]	; (8002474 <z_data_copy+0x1c>)
	z_early_memcpy(&__data_region_start, &__data_region_load_start,
 800245c:	4a06      	ldr	r2, [pc, #24]	; (8002478 <z_data_copy+0x20>)
 800245e:	4907      	ldr	r1, [pc, #28]	; (800247c <z_data_copy+0x24>)
 8002460:	1a12      	subs	r2, r2, r0
 8002462:	f000 fced 	bl	8002e40 <z_early_memcpy>
#else
	z_early_memcpy(&_app_smem_start, &_app_smem_rom_start,
		       _app_smem_end - _app_smem_start);
#endif /* CONFIG_STACK_CANARIES */
#endif /* CONFIG_USERSPACE */
}
 8002466:	e8bd 4008 	ldmia.w	sp!, {r3, lr}
	z_early_memcpy(&__ramfunc_start, &__ramfunc_load_start,
 800246a:	4a05      	ldr	r2, [pc, #20]	; (8002480 <z_data_copy+0x28>)
 800246c:	4905      	ldr	r1, [pc, #20]	; (8002484 <z_data_copy+0x2c>)
 800246e:	4806      	ldr	r0, [pc, #24]	; (8002488 <z_data_copy+0x30>)
 8002470:	f000 bce6 	b.w	8002e40 <z_early_memcpy>
 8002474:	20000000 	.word	0x20000000
 8002478:	20000054 	.word	0x20000054
 800247c:	080035d4 	.word	0x080035d4
 8002480:	00000000 	.word	0x00000000
 8002484:	080035d4 	.word	0x080035d4
 8002488:	20000000 	.word	0x20000000

0800248c <elapsed>:
	sys_dlist_remove(&t->node);
}

static int32_t elapsed(void)
{
	return announce_remaining == 0 ? sys_clock_elapsed() : 0U;
 800248c:	4b03      	ldr	r3, [pc, #12]	; (800249c <elapsed+0x10>)
 800248e:	681b      	ldr	r3, [r3, #0]
 8002490:	b90b      	cbnz	r3, 8002496 <elapsed+0xa>
 8002492:	f7ff bb9b 	b.w	8001bcc <sys_clock_elapsed>
}
 8002496:	2000      	movs	r0, #0
 8002498:	4770      	bx	lr
 800249a:	bf00      	nop
 800249c:	2000026c 	.word	0x2000026c

080024a0 <next_timeout>:

static int32_t next_timeout(void)
{
 80024a0:	b510      	push	{r4, lr}
	return list->head == list;
 80024a2:	4b11      	ldr	r3, [pc, #68]	; (80024e8 <next_timeout+0x48>)
 80024a4:	681c      	ldr	r4, [r3, #0]
	return sys_dlist_is_empty(list) ? NULL : list->head;
 80024a6:	429c      	cmp	r4, r3
 80024a8:	d10a      	bne.n	80024c0 <next_timeout+0x20>
	struct _timeout *to = first();
	int32_t ticks_elapsed = elapsed();
 80024aa:	f7ff ffef 	bl	800248c <elapsed>
	int32_t ret;

	if ((to == NULL) ||
	    ((int64_t)(to->dticks - ticks_elapsed) > (int64_t)INT_MAX)) {
		ret = MAX_WAIT;
 80024ae:	f06f 4000 	mvn.w	r0, #2147483648	; 0x80000000
	} else {
		ret = MAX(0, to->dticks - ticks_elapsed);
	}

#ifdef CONFIG_TIMESLICING
	if (_current_cpu->slice_ticks && _current_cpu->slice_ticks < ret) {
 80024b2:	4b0e      	ldr	r3, [pc, #56]	; (80024ec <next_timeout+0x4c>)
 80024b4:	691b      	ldr	r3, [r3, #16]
 80024b6:	b113      	cbz	r3, 80024be <next_timeout+0x1e>
 80024b8:	4298      	cmp	r0, r3
 80024ba:	bfa8      	it	ge
 80024bc:	4618      	movge	r0, r3
		ret = _current_cpu->slice_ticks;
	}
#endif
	return ret;
}
 80024be:	bd10      	pop	{r4, pc}
	int32_t ticks_elapsed = elapsed();
 80024c0:	f7ff ffe4 	bl	800248c <elapsed>
	if ((to == NULL) ||
 80024c4:	2c00      	cmp	r4, #0
 80024c6:	d0f2      	beq.n	80024ae <next_timeout+0xe>
	    ((int64_t)(to->dticks - ticks_elapsed) > (int64_t)INT_MAX)) {
 80024c8:	e9d4 3204 	ldrd	r3, r2, [r4, #16]
 80024cc:	1a1b      	subs	r3, r3, r0
 80024ce:	eb62 72e0 	sbc.w	r2, r2, r0, asr #31
	if ((to == NULL) ||
 80024d2:	f1b3 4f00 	cmp.w	r3, #2147483648	; 0x80000000
 80024d6:	f172 0100 	sbcs.w	r1, r2, #0
 80024da:	dae8      	bge.n	80024ae <next_timeout+0xe>
		ret = MAX(0, to->dticks - ticks_elapsed);
 80024dc:	2a00      	cmp	r2, #0
 80024de:	bfac      	ite	ge
 80024e0:	4618      	movge	r0, r3
 80024e2:	2000      	movlt	r0, #0
 80024e4:	e7e5      	b.n	80024b2 <next_timeout+0x12>
 80024e6:	bf00      	nop
 80024e8:	20000030 	.word	0x20000030
 80024ec:	2000023c 	.word	0x2000023c

080024f0 <remove_timeout>:
{
 80024f0:	b530      	push	{r4, r5, lr}
	return (node != NULL) ? sys_dlist_peek_next_no_check(list, node) : NULL;
 80024f2:	b170      	cbz	r0, 8002512 <remove_timeout+0x22>
	return (node == list->tail) ? NULL : node->next;
 80024f4:	4b0b      	ldr	r3, [pc, #44]	; (8002524 <remove_timeout+0x34>)
 80024f6:	685b      	ldr	r3, [r3, #4]
 80024f8:	4298      	cmp	r0, r3
 80024fa:	d00a      	beq.n	8002512 <remove_timeout+0x22>
 80024fc:	6803      	ldr	r3, [r0, #0]
	if (next(t) != NULL) {
 80024fe:	b143      	cbz	r3, 8002512 <remove_timeout+0x22>
		next(t)->dticks += t->dticks;
 8002500:	e9d3 2104 	ldrd	r2, r1, [r3, #16]
 8002504:	e9d0 4504 	ldrd	r4, r5, [r0, #16]
 8002508:	1912      	adds	r2, r2, r4
 800250a:	eb41 0105 	adc.w	r1, r1, r5
 800250e:	e9c3 2104 	strd	r2, r1, [r3, #16]
 */

static inline void sys_dlist_remove(sys_dnode_t *node)
{
	sys_dnode_t *const prev = node->prev;
	sys_dnode_t *const next = node->next;
 8002512:	e9d0 3200 	ldrd	r3, r2, [r0]

	prev->next = next;
 8002516:	6013      	str	r3, [r2, #0]
	next->prev = prev;
 8002518:	605a      	str	r2, [r3, #4]
	node->next = NULL;
 800251a:	2300      	movs	r3, #0
	node->prev = NULL;
 800251c:	e9c0 3300 	strd	r3, r3, [r0]
}
 8002520:	bd30      	pop	{r4, r5, pc}
 8002522:	bf00      	nop
 8002524:	20000030 	.word	0x20000030

08002528 <z_add_timeout>:

void z_add_timeout(struct _timeout *to, _timeout_func_t fn,
		   k_timeout_t timeout)
{
	if (K_TIMEOUT_EQ(timeout, K_FOREVER)) {
 8002528:	f1b3 3fff 	cmp.w	r3, #4294967295
 800252c:	bf08      	it	eq
 800252e:	f1b2 3fff 	cmpeq.w	r2, #4294967295
{
 8002532:	b5f8      	push	{r3, r4, r5, r6, r7, lr}
 8002534:	4604      	mov	r4, r0
 8002536:	461d      	mov	r5, r3
 8002538:	4616      	mov	r6, r2
	if (K_TIMEOUT_EQ(timeout, K_FOREVER)) {
 800253a:	d061      	beq.n	8002600 <z_add_timeout+0xd8>
#ifdef CONFIG_KERNEL_COHERENCE
	__ASSERT_NO_MSG(arch_mem_coherent(to));
#endif

	__ASSERT(!sys_dnode_is_linked(&to->node), "");
	to->fn = fn;
 800253c:	6081      	str	r1, [r0, #8]
	__asm__ volatile(
 800253e:	f04f 0310 	mov.w	r3, #16
 8002542:	f3ef 8711 	mrs	r7, BASEPRI
 8002546:	f383 8812 	msr	BASEPRI_MAX, r3
 800254a:	f3bf 8f6f 	isb	sy

	LOCKED(&timeout_lock) {
		struct _timeout *t;

		if (IS_ENABLED(CONFIG_TIMEOUT_64BIT) &&
 800254e:	3201      	adds	r2, #1
 8002550:	f175 33ff 	sbcs.w	r3, r5, #4294967295
 8002554:	da24      	bge.n	80025a0 <z_add_timeout+0x78>
		    Z_TICK_ABS(timeout.ticks) >= 0) {
			k_ticks_t ticks = Z_TICK_ABS(timeout.ticks) - curr_tick;
 8002556:	4930      	ldr	r1, [pc, #192]	; (8002618 <z_add_timeout+0xf0>)
 8002558:	e9d1 2000 	ldrd	r2, r0, [r1]
 800255c:	f06f 0301 	mvn.w	r3, #1
 8002560:	1a9b      	subs	r3, r3, r2
 8002562:	f04f 32ff 	mov.w	r2, #4294967295
 8002566:	eb62 0000 	sbc.w	r0, r2, r0
 800256a:	1b9e      	subs	r6, r3, r6
 800256c:	eb60 0005 	sbc.w	r0, r0, r5

			to->dticks = MAX(1, ticks);
 8002570:	2e01      	cmp	r6, #1
 8002572:	f170 0300 	sbcs.w	r3, r0, #0
 8002576:	da01      	bge.n	800257c <z_add_timeout+0x54>
 8002578:	2601      	movs	r6, #1
 800257a:	2000      	movs	r0, #0
 800257c:	e9c4 6004 	strd	r6, r0, [r4, #16]
	return list->head == list;
 8002580:	4e26      	ldr	r6, [pc, #152]	; (800261c <z_add_timeout+0xf4>)
 8002582:	f8d6 c000 	ldr.w	ip, [r6]
	return (node == list->tail) ? NULL : node->next;
 8002586:	6875      	ldr	r5, [r6, #4]
	return sys_dlist_is_empty(list) ? NULL : list->head;
 8002588:	45b4      	cmp	ip, r6
 800258a:	bf08      	it	eq
 800258c:	f04f 0c00 	moveq.w	ip, #0
		} else {
			to->dticks = timeout.ticks + 1 + elapsed();
		}

		for (t = first(); t != NULL; t = next(t)) {
 8002590:	f1bc 0f00 	cmp.w	ip, #0
 8002594:	d10d      	bne.n	80025b2 <z_add_timeout+0x8a>
	node->prev = tail;
 8002596:	e9c4 6500 	strd	r6, r5, [r4]
	tail->next = node;
 800259a:	602c      	str	r4, [r5, #0]
	list->tail = node;
 800259c:	6074      	str	r4, [r6, #4]
}
 800259e:	e01c      	b.n	80025da <z_add_timeout+0xb2>
			to->dticks = timeout.ticks + 1 + elapsed();
 80025a0:	f7ff ff74 	bl	800248c <elapsed>
 80025a4:	3601      	adds	r6, #1
 80025a6:	f145 0500 	adc.w	r5, r5, #0
 80025aa:	1836      	adds	r6, r6, r0
 80025ac:	eb45 70e0 	adc.w	r0, r5, r0, asr #31
 80025b0:	e7e4      	b.n	800257c <z_add_timeout+0x54>
			if (t->dticks > to->dticks) {
 80025b2:	e9dc 2004 	ldrd	r2, r0, [ip, #16]
 80025b6:	e9d4 3104 	ldrd	r3, r1, [r4, #16]
 80025ba:	4293      	cmp	r3, r2
 80025bc:	eb71 0e00 	sbcs.w	lr, r1, r0
 80025c0:	da1f      	bge.n	8002602 <z_add_timeout+0xda>
				t->dticks -= to->dticks;
 80025c2:	1ad2      	subs	r2, r2, r3
	sys_dnode_t *const prev = successor->prev;
 80025c4:	f8dc 3004 	ldr.w	r3, [ip, #4]
 80025c8:	eb60 0001 	sbc.w	r0, r0, r1
 80025cc:	e9cc 2004 	strd	r2, r0, [ip, #16]
	node->next = successor;
 80025d0:	e9c4 c300 	strd	ip, r3, [r4]
	prev->next = node;
 80025d4:	601c      	str	r4, [r3, #0]
	successor->prev = node;
 80025d6:	f8cc 4004 	str.w	r4, [ip, #4]
	return list->head == list;
 80025da:	6833      	ldr	r3, [r6, #0]
	return sys_dlist_is_empty(list) ? NULL : list->head;
 80025dc:	42b3      	cmp	r3, r6
 80025de:	d00b      	beq.n	80025f8 <z_add_timeout+0xd0>

		if (t == NULL) {
			sys_dlist_append(&timeout_list, &to->node);
		}

		if (to == first()) {
 80025e0:	429c      	cmp	r4, r3
 80025e2:	d109      	bne.n	80025f8 <z_add_timeout+0xd0>
			 * last announcement, and slice_ticks is based
			 * on that. It means that the time remaining for
			 * the next announcement can be less than
			 * slice_ticks.
			 */
			int32_t next_time = next_timeout();
 80025e4:	f7ff ff5c 	bl	80024a0 <next_timeout>

			if (next_time == 0 ||
 80025e8:	b118      	cbz	r0, 80025f2 <z_add_timeout+0xca>
			    _current_cpu->slice_ticks != next_time) {
 80025ea:	4b0d      	ldr	r3, [pc, #52]	; (8002620 <z_add_timeout+0xf8>)
			if (next_time == 0 ||
 80025ec:	691b      	ldr	r3, [r3, #16]
 80025ee:	4283      	cmp	r3, r0
 80025f0:	d002      	beq.n	80025f8 <z_add_timeout+0xd0>
				sys_clock_set_timeout(next_time, false);
 80025f2:	2100      	movs	r1, #0
 80025f4:	f7ff fa78 	bl	8001ae8 <sys_clock_set_timeout>
	__asm__ volatile(
 80025f8:	f387 8811 	msr	BASEPRI, r7
 80025fc:	f3bf 8f6f 	isb	sy
#else
			sys_clock_set_timeout(next_timeout(), false);
#endif	/* CONFIG_TIMESLICING */
		}
	}
}
 8002600:	bdf8      	pop	{r3, r4, r5, r6, r7, pc}
			to->dticks -= t->dticks;
 8002602:	1a9b      	subs	r3, r3, r2
 8002604:	eb61 0100 	sbc.w	r1, r1, r0
	return (node == list->tail) ? NULL : node->next;
 8002608:	45ac      	cmp	ip, r5
 800260a:	e9c4 3104 	strd	r3, r1, [r4, #16]
 800260e:	d0c2      	beq.n	8002596 <z_add_timeout+0x6e>
 8002610:	f8dc c000 	ldr.w	ip, [ip]
 8002614:	e7bc      	b.n	8002590 <z_add_timeout+0x68>
 8002616:	bf00      	nop
 8002618:	20000158 	.word	0x20000158
 800261c:	20000030 	.word	0x20000030
 8002620:	2000023c 	.word	0x2000023c

08002624 <sys_clock_announce>:
		}
	}
}

void sys_clock_announce(int32_t ticks)
{
 8002624:	e92d 43f8 	stmdb	sp!, {r3, r4, r5, r6, r7, r8, r9, lr}
 8002628:	4604      	mov	r4, r0
#ifdef CONFIG_TIMESLICING
	z_time_slice(ticks);
 800262a:	f7ff fe01 	bl	8002230 <z_time_slice>
	__asm__ volatile(
 800262e:	f04f 0310 	mov.w	r3, #16
 8002632:	f3ef 8611 	mrs	r6, BASEPRI
 8002636:	f383 8812 	msr	BASEPRI_MAX, r3
 800263a:	f3bf 8f6f 	isb	sy
		announce_remaining += ticks;
		k_spin_unlock(&timeout_lock, key);
		return;
	}

	announce_remaining = ticks;
 800263e:	4f23      	ldr	r7, [pc, #140]	; (80026cc <sys_clock_announce+0xa8>)
	return list->head == list;
 8002640:	f8df 808c 	ldr.w	r8, [pc, #140]	; 80026d0 <sys_clock_announce+0xac>
 8002644:	f8d8 0000 	ldr.w	r0, [r8]

	while (first() != NULL && first()->dticks <= announce_remaining) {
		struct _timeout *t = first();
		int dt = t->dticks;

		curr_tick += dt;
 8002648:	4a22      	ldr	r2, [pc, #136]	; (80026d4 <sys_clock_announce+0xb0>)
	announce_remaining = ticks;
 800264a:	603c      	str	r4, [r7, #0]
	return sys_dlist_is_empty(list) ? NULL : list->head;
 800264c:	4540      	cmp	r0, r8
		curr_tick += dt;
 800264e:	e9d2 3e00 	ldrd	r3, lr, [r2]
 8002652:	ea4f 71e4 	mov.w	r1, r4, asr #31
 8002656:	d00b      	beq.n	8002670 <sys_clock_announce+0x4c>
	while (first() != NULL && first()->dticks <= announce_remaining) {
 8002658:	b150      	cbz	r0, 8002670 <sys_clock_announce+0x4c>
 800265a:	e9d0 5c04 	ldrd	r5, ip, [r0, #16]
 800265e:	42ac      	cmp	r4, r5
 8002660:	eb71 090c 	sbcs.w	r9, r1, ip
 8002664:	da16      	bge.n	8002694 <sys_clock_announce+0x70>
		key = k_spin_lock(&timeout_lock);
		announce_remaining -= dt;
	}

	if (first() != NULL) {
		first()->dticks -= announce_remaining;
 8002666:	1b2d      	subs	r5, r5, r4
 8002668:	eb6c 0c01 	sbc.w	ip, ip, r1
 800266c:	e9c0 5c04 	strd	r5, ip, [r0, #16]
	}

	curr_tick += announce_remaining;
 8002670:	18e3      	adds	r3, r4, r3
 8002672:	eb4e 0101 	adc.w	r1, lr, r1
	announce_remaining = 0;
 8002676:	2400      	movs	r4, #0
	curr_tick += announce_remaining;
 8002678:	e9c2 3100 	strd	r3, r1, [r2]
	announce_remaining = 0;
 800267c:	603c      	str	r4, [r7, #0]

	sys_clock_set_timeout(next_timeout(), false);
 800267e:	f7ff ff0f 	bl	80024a0 <next_timeout>
 8002682:	4621      	mov	r1, r4
 8002684:	f7ff fa30 	bl	8001ae8 <sys_clock_set_timeout>
	__asm__ volatile(
 8002688:	f386 8811 	msr	BASEPRI, r6
 800268c:	f3bf 8f6f 	isb	sy

	k_spin_unlock(&timeout_lock, key);
}
 8002690:	e8bd 83f8 	ldmia.w	sp!, {r3, r4, r5, r6, r7, r8, r9, pc}
		curr_tick += dt;
 8002694:	18eb      	adds	r3, r5, r3
 8002696:	eb4e 71e5 	adc.w	r1, lr, r5, asr #31
 800269a:	e9c2 3100 	strd	r3, r1, [r2]
		t->dticks = 0;
 800269e:	2200      	movs	r2, #0
 80026a0:	2300      	movs	r3, #0
 80026a2:	e9c0 2304 	strd	r2, r3, [r0, #16]
		remove_timeout(t);
 80026a6:	f7ff ff23 	bl	80024f0 <remove_timeout>
 80026aa:	f386 8811 	msr	BASEPRI, r6
 80026ae:	f3bf 8f6f 	isb	sy
		t->fn(t);
 80026b2:	6883      	ldr	r3, [r0, #8]
 80026b4:	4798      	blx	r3
	__asm__ volatile(
 80026b6:	f04f 0310 	mov.w	r3, #16
 80026ba:	f3ef 8611 	mrs	r6, BASEPRI
 80026be:	f383 8812 	msr	BASEPRI_MAX, r3
 80026c2:	f3bf 8f6f 	isb	sy
		announce_remaining -= dt;
 80026c6:	683c      	ldr	r4, [r7, #0]
 80026c8:	1b64      	subs	r4, r4, r5
 80026ca:	e7bb      	b.n	8002644 <sys_clock_announce+0x20>
 80026cc:	2000026c 	.word	0x2000026c
 80026d0:	20000030 	.word	0x20000030
 80026d4:	20000158 	.word	0x20000158

080026d8 <boot_banner>:
		k_busy_wait(CONFIG_BOOT_DELAY * USEC_PER_MSEC);
	}

#if defined(CONFIG_BOOT_BANNER)
#ifdef BUILD_VERSION
	printk("*** Booting Zephyr OS build %s %s ***\n",
 80026d8:	4a02      	ldr	r2, [pc, #8]	; (80026e4 <boot_banner+0xc>)
 80026da:	4903      	ldr	r1, [pc, #12]	; (80026e8 <boot_banner+0x10>)
 80026dc:	4803      	ldr	r0, [pc, #12]	; (80026ec <boot_banner+0x14>)
 80026de:	f000 b839 	b.w	8002754 <printk>
 80026e2:	bf00      	nop
 80026e4:	080035d2 	.word	0x080035d2
 80026e8:	0800358b 	.word	0x0800358b
 80026ec:	080035ac 	.word	0x080035ac

080026f0 <_OffsetAbsSyms>:

#include <gen_offset.h>

#include "offsets_aarch32.c"

GEN_ABS_SYM_END
 80026f0:	4770      	bx	lr

080026f2 <gpio_pin_configure_dt>:
{
 80026f2:	b4f0      	push	{r4, r5, r6, r7}
 80026f4:	4603      	mov	r3, r0
 80026f6:	460a      	mov	r2, r1
				  spec->pin,
 80026f8:	7919      	ldrb	r1, [r3, #4]
				  spec->dt_flags | extra_flags);
 80026fa:	88db      	ldrh	r3, [r3, #6]
	return gpio_pin_configure(spec->port,
 80026fc:	6800      	ldr	r0, [r0, #0]
 80026fe:	4313      	orrs	r3, r2
	if (((flags & GPIO_OUTPUT_INIT_LOGICAL) != 0)
 8002700:	02dc      	lsls	r4, r3, #11
	const struct gpio_driver_api *api =
 8002702:	6887      	ldr	r7, [r0, #8]
	struct gpio_driver_data *data =
 8002704:	6906      	ldr	r6, [r0, #16]
	if (((flags & GPIO_OUTPUT_INIT_LOGICAL) != 0)
 8002706:	d506      	bpl.n	8002716 <gpio_pin_configure_dt+0x24>
	    && ((flags & (GPIO_OUTPUT_INIT_LOW | GPIO_OUTPUT_INIT_HIGH)) != 0)
 8002708:	f413 2f40 	tst.w	r3, #786432	; 0xc0000
 800270c:	d003      	beq.n	8002716 <gpio_pin_configure_dt+0x24>
	    && ((flags & GPIO_ACTIVE_LOW) != 0)) {
 800270e:	07da      	lsls	r2, r3, #31
		flags ^= GPIO_OUTPUT_INIT_LOW | GPIO_OUTPUT_INIT_HIGH;
 8002710:	bf48      	it	mi
 8002712:	f483 2340 	eormi.w	r3, r3, #786432	; 0xc0000
		data->invert |= (gpio_port_pins_t)BIT(pin);
 8002716:	6834      	ldr	r4, [r6, #0]
 8002718:	2501      	movs	r5, #1
 800271a:	408d      	lsls	r5, r1
	flags &= ~GPIO_OUTPUT_INIT_LOGICAL;
 800271c:	f423 1280 	bic.w	r2, r3, #1048576	; 0x100000
	if ((flags & GPIO_ACTIVE_LOW) != 0) {
 8002720:	07db      	lsls	r3, r3, #31
		data->invert |= (gpio_port_pins_t)BIT(pin);
 8002722:	bf4c      	ite	mi
 8002724:	432c      	orrmi	r4, r5
		data->invert &= ~(gpio_port_pins_t)BIT(pin);
 8002726:	43ac      	bicpl	r4, r5
 8002728:	6034      	str	r4, [r6, #0]
	return api->pin_configure(port, pin, flags);
 800272a:	683b      	ldr	r3, [r7, #0]
}
 800272c:	bcf0      	pop	{r4, r5, r6, r7}
	return api->pin_configure(port, pin, flags);
 800272e:	4718      	bx	r3

08002730 <gpio_pin_set.isra.0>:
	if (data->invert & (gpio_port_pins_t)BIT(pin)) {
 8002730:	2301      	movs	r3, #1
 8002732:	fa03 f101 	lsl.w	r1, r3, r1
 8002736:	6903      	ldr	r3, [r0, #16]
 8002738:	681b      	ldr	r3, [r3, #0]
 800273a:	4219      	tst	r1, r3
		value = (value != 0) ? 0 : 1;
 800273c:	bf18      	it	ne
 800273e:	f082 0201 	eorne.w	r2, r2, #1
	if (value != 0)	{
 8002742:	b112      	cbz	r2, 800274a <gpio_pin_set.isra.0+0x1a>
	return api->port_set_bits_raw(port, pins);
 8002744:	6883      	ldr	r3, [r0, #8]
 8002746:	68db      	ldr	r3, [r3, #12]
	return api->port_clear_bits_raw(port, pins);
 8002748:	4718      	bx	r3
 800274a:	6883      	ldr	r3, [r0, #8]
 800274c:	691b      	ldr	r3, [r3, #16]
 800274e:	e7fb      	b.n	8002748 <gpio_pin_set.isra.0+0x18>

08002750 <arch_printk_char_out>:
}
 8002750:	2000      	movs	r0, #0
 8002752:	4770      	bx	lr

08002754 <printk>:
 *
 * @param fmt formatted string to output
 */

void printk(const char *fmt, ...)
{
 8002754:	b40f      	push	{r0, r1, r2, r3}
 8002756:	b507      	push	{r0, r1, r2, lr}
 8002758:	a904      	add	r1, sp, #16
 800275a:	f851 0b04 	ldr.w	r0, [r1], #4
	va_list ap;

	va_start(ap, fmt);
 800275e:	9101      	str	r1, [sp, #4]

	vprintk(fmt, ap);
 8002760:	f7fd febc 	bl	80004dc <vprintk>

	va_end(ap);
}
 8002764:	b003      	add	sp, #12
 8002766:	f85d eb04 	ldr.w	lr, [sp], #4
 800276a:	b004      	add	sp, #16
 800276c:	4770      	bx	lr

0800276e <z_thread_entry>:
 * This routine does not return, and is marked as such so the compiler won't
 * generate preamble code that is only used by functions that actually return.
 */
FUNC_NORETURN void z_thread_entry(k_thread_entry_t entry,
				 void *p1, void *p2, void *p3)
{
 800276e:	4604      	mov	r4, r0
 8002770:	b508      	push	{r3, lr}
 8002772:	4608      	mov	r0, r1
 8002774:	4611      	mov	r1, r2
#ifdef CONFIG_THREAD_LOCAL_STORAGE
	z_tls_current = z_current_get();
#endif
	entry(p1, p2, p3);
 8002776:	461a      	mov	r2, r3
 8002778:	47a0      	blx	r4
	if (z_syscall_trap()) {
		return (k_tid_t) arch_syscall_invoke0(K_SYSCALL_Z_CURRENT_GET);
	}
#endif
	compiler_barrier();
	return z_impl_z_current_get();
 800277a:	f7ff fe07 	bl	800238c <z_impl_z_current_get>
		(void) arch_syscall_invoke1(parm0.x, K_SYSCALL_K_THREAD_ABORT);
		return;
	}
#endif
	compiler_barrier();
	z_impl_k_thread_abort(thread);
 800277e:	f7fe fccb 	bl	8001118 <z_impl_k_thread_abort>

08002782 <encode_uint>:
{
 8002782:	e92d 4ff8 	stmdb	sp!, {r3, r4, r5, r6, r7, r8, r9, sl, fp, lr}
 8002786:	469a      	mov	sl, r3
	bool upcase = isupper((int)conv->specifier);
 8002788:	78d3      	ldrb	r3, [r2, #3]
	switch (specifier) {
 800278a:	2b6f      	cmp	r3, #111	; 0x6f
{
 800278c:	4680      	mov	r8, r0
 800278e:	460f      	mov	r7, r1
 8002790:	4615      	mov	r5, r2
	return (int)(((unsigned)(a)-(unsigned)'A') < 26U);
 8002792:	f1a3 0b41 	sub.w	fp, r3, #65	; 0x41
	switch (specifier) {
 8002796:	d029      	beq.n	80027ec <encode_uint+0x6a>
 8002798:	d824      	bhi.n	80027e4 <encode_uint+0x62>
		return 10;
 800279a:	2b58      	cmp	r3, #88	; 0x58
 800279c:	bf0c      	ite	eq
 800279e:	2610      	moveq	r6, #16
 80027a0:	260a      	movne	r6, #10
	char *bp = bps + (bpe - bps);
 80027a2:	f8dd 9028 	ldr.w	r9, [sp, #40]	; 0x28
		unsigned int lsv = (unsigned int)(value % radix);
 80027a6:	4632      	mov	r2, r6
 80027a8:	2300      	movs	r3, #0
 80027aa:	4640      	mov	r0, r8
 80027ac:	4639      	mov	r1, r7
 80027ae:	f7fd fced 	bl	800018c <__aeabi_uldivmod>
		*--bp = (lsv <= 9) ? ('0' + lsv)
 80027b2:	2a09      	cmp	r2, #9
 80027b4:	b2d4      	uxtb	r4, r2
 80027b6:	d81e      	bhi.n	80027f6 <encode_uint+0x74>
 80027b8:	3430      	adds	r4, #48	; 0x30
	} while ((value != 0) && (bps < bp));
 80027ba:	45b0      	cmp	r8, r6
		*--bp = (lsv <= 9) ? ('0' + lsv)
 80027bc:	b2e4      	uxtb	r4, r4
	} while ((value != 0) && (bps < bp));
 80027be:	f177 0700 	sbcs.w	r7, r7, #0
		*--bp = (lsv <= 9) ? ('0' + lsv)
 80027c2:	f809 4d01 	strb.w	r4, [r9, #-1]!
	} while ((value != 0) && (bps < bp));
 80027c6:	d301      	bcc.n	80027cc <encode_uint+0x4a>
 80027c8:	45d1      	cmp	r9, sl
 80027ca:	d811      	bhi.n	80027f0 <encode_uint+0x6e>
	if (conv->flag_hash) {
 80027cc:	782b      	ldrb	r3, [r5, #0]
 80027ce:	069b      	lsls	r3, r3, #26
 80027d0:	d505      	bpl.n	80027de <encode_uint+0x5c>
		if (radix == 8) {
 80027d2:	2e08      	cmp	r6, #8
 80027d4:	d115      	bne.n	8002802 <encode_uint+0x80>
			conv->altform_0 = true;
 80027d6:	78ab      	ldrb	r3, [r5, #2]
 80027d8:	f043 0308 	orr.w	r3, r3, #8
			conv->altform_0c = true;
 80027dc:	70ab      	strb	r3, [r5, #2]
}
 80027de:	4648      	mov	r0, r9
 80027e0:	e8bd 8ff8 	ldmia.w	sp!, {r3, r4, r5, r6, r7, r8, r9, sl, fp, pc}
	switch (specifier) {
 80027e4:	f003 03f7 	and.w	r3, r3, #247	; 0xf7
		return 10;
 80027e8:	2b70      	cmp	r3, #112	; 0x70
 80027ea:	e7d7      	b.n	800279c <encode_uint+0x1a>
	switch (specifier) {
 80027ec:	2608      	movs	r6, #8
 80027ee:	e7d8      	b.n	80027a2 <encode_uint+0x20>
		value /= radix;
 80027f0:	4680      	mov	r8, r0
 80027f2:	460f      	mov	r7, r1
 80027f4:	e7d7      	b.n	80027a6 <encode_uint+0x24>
		*--bp = (lsv <= 9) ? ('0' + lsv)
 80027f6:	f1bb 0f19 	cmp.w	fp, #25
 80027fa:	bf94      	ite	ls
 80027fc:	3437      	addls	r4, #55	; 0x37
 80027fe:	3457      	addhi	r4, #87	; 0x57
 8002800:	e7db      	b.n	80027ba <encode_uint+0x38>
		} else if (radix == 16) {
 8002802:	2e10      	cmp	r6, #16
 8002804:	d1eb      	bne.n	80027de <encode_uint+0x5c>
			conv->altform_0c = true;
 8002806:	78ab      	ldrb	r3, [r5, #2]
 8002808:	f043 0310 	orr.w	r3, r3, #16
 800280c:	e7e6      	b.n	80027dc <encode_uint+0x5a>

0800280e <outs>:
{
 800280e:	e92d 41f0 	stmdb	sp!, {r4, r5, r6, r7, r8, lr}
 8002812:	4607      	mov	r7, r0
 8002814:	4688      	mov	r8, r1
 8002816:	4615      	mov	r5, r2
 8002818:	461e      	mov	r6, r3
	while ((sp < ep) || ((ep == NULL) && *sp)) {
 800281a:	4614      	mov	r4, r2
 800281c:	42b4      	cmp	r4, r6
 800281e:	d305      	bcc.n	800282c <outs+0x1e>
 8002820:	b10e      	cbz	r6, 8002826 <outs+0x18>
	return (int)count;
 8002822:	1b60      	subs	r0, r4, r5
 8002824:	e008      	b.n	8002838 <outs+0x2a>
	while ((sp < ep) || ((ep == NULL) && *sp)) {
 8002826:	7823      	ldrb	r3, [r4, #0]
 8002828:	2b00      	cmp	r3, #0
 800282a:	d0fa      	beq.n	8002822 <outs+0x14>
		int rc = out((int)*sp++, ctx);
 800282c:	f814 0b01 	ldrb.w	r0, [r4], #1
 8002830:	4641      	mov	r1, r8
 8002832:	47b8      	blx	r7
		if (rc < 0) {
 8002834:	2800      	cmp	r0, #0
 8002836:	daf1      	bge.n	800281c <outs+0xe>
}
 8002838:	e8bd 81f0 	ldmia.w	sp!, {r4, r5, r6, r7, r8, pc}

0800283c <_ConfigAbsSyms>:
GEN_ABSOLUTE_SYM_KCONFIG(CONFIG_BUILD_OUTPUT_BIN, 1);
GEN_ABSOLUTE_SYM_KCONFIG(CONFIG_WARN_DEPRECATED, 1);
GEN_ABSOLUTE_SYM_KCONFIG(CONFIG_ENFORCE_ZEPHYR_STDINT, 1);
GEN_ABSOLUTE_SYM_KCONFIG(CONFIG_COMPAT_INCLUDES, 1);

GEN_ABS_SYM_END
 800283c:	4770      	bx	lr

0800283e <st_stm32_common_config>:
#endif /* CONFIG_SOC_SERIES_STM32H7X || CONFIG_SOC_SERIES_STM32MP1X */

#endif /* CONFIG_USE_SEGGER_RTT */

	return 0;
}
 800283e:	2000      	movs	r0, #0
 8002840:	4770      	bx	lr

08002842 <z_arm_fatal_error>:
{

	if (esf != NULL) {
		esf_dump(esf);
	}
	z_fatal_error(reason, esf);
 8002842:	f000 bae0 	b.w	8002e06 <z_fatal_error>

08002846 <z_do_kernel_oops>:
 *
 * @param esf exception frame
 * @param callee_regs Callee-saved registers (R4-R11)
 */
void z_do_kernel_oops(const z_arch_esf_t *esf, _callee_saved_t *callee_regs)
{
 8002846:	4601      	mov	r1, r0
	z_fatal_error(reason, esf);
 8002848:	6800      	ldr	r0, [r0, #0]
 800284a:	f000 badc 	b.w	8002e06 <z_fatal_error>

0800284e <z_irq_spurious>:
 */
void z_irq_spurious(const void *unused)
{
	ARG_UNUSED(unused);

	z_arm_fatal_error(K_ERR_SPURIOUS_IRQ, NULL);
 800284e:	2100      	movs	r1, #0
 8002850:	2001      	movs	r0, #1
 8002852:	f7ff bff6 	b.w	8002842 <z_arm_fatal_error>

08002856 <z_arm_nmi>:
 * Simply call what is installed in 'static void(*handler)(void)'.
 *
 */

void z_arm_nmi(void)
{
 8002856:	b508      	push	{r3, lr}
	handler();
 8002858:	f7fe fa50 	bl	8000cfc <z_SysNmiOnReset>
	z_arm_int_exit();
}
 800285c:	e8bd 4008 	ldmia.w	sp!, {r3, lr}
	z_arm_int_exit();
 8002860:	f7fe bb24 	b.w	8000eac <z_arm_exc_exit>

08002864 <strlen>:
 *
 * @return number of bytes in string <s>
 */

size_t strlen(const char *s)
{
 8002864:	4603      	mov	r3, r0
	size_t n = 0;
 8002866:	2000      	movs	r0, #0

	while (*s != '\0') {
 8002868:	5c1a      	ldrb	r2, [r3, r0]
 800286a:	b902      	cbnz	r2, 800286e <strlen+0xa>
		s++;
		n++;
	}

	return n;
}
 800286c:	4770      	bx	lr
		n++;
 800286e:	3001      	adds	r0, #1
 8002870:	e7fa      	b.n	8002868 <strlen+0x4>

08002872 <strnlen>:
 *
 * @return number of bytes in fixed-size string <s>
 */

size_t strnlen(const char *s, size_t maxlen)
{
 8002872:	4603      	mov	r3, r0
	size_t n = 0;
 8002874:	2000      	movs	r0, #0

	while (*s != '\0' && n < maxlen) {
 8002876:	5c1a      	ldrb	r2, [r3, r0]
 8002878:	b10a      	cbz	r2, 800287e <strnlen+0xc>
 800287a:	4288      	cmp	r0, r1
 800287c:	d100      	bne.n	8002880 <strnlen+0xe>
		s++;
		n++;
	}

	return n;
}
 800287e:	4770      	bx	lr
		n++;
 8002880:	3001      	adds	r0, #1
 8002882:	e7f8      	b.n	8002876 <strnlen+0x4>

08002884 <memcpy>:
 *
 * @return pointer to start of destination buffer
 */

void *memcpy(void *ZRESTRICT d, const void *ZRESTRICT s, size_t n)
{
 8002884:	b510      	push	{r4, lr}
 8002886:	1e43      	subs	r3, r0, #1
 8002888:	440a      	add	r2, r1
	}
#endif

	/* do byte-sized copying until finished */

	while (n > 0) {
 800288a:	4291      	cmp	r1, r2
 800288c:	d100      	bne.n	8002890 <memcpy+0xc>
		*(d_byte++) = *(s_byte++);
		n--;
	}

	return d;
}
 800288e:	bd10      	pop	{r4, pc}
		*(d_byte++) = *(s_byte++);
 8002890:	f811 4b01 	ldrb.w	r4, [r1], #1
 8002894:	f803 4f01 	strb.w	r4, [r3, #1]!
		n--;
 8002898:	e7f7      	b.n	800288a <memcpy+0x6>

0800289a <memset>:
void *memset(void *buf, int c, size_t n)
{
	/* do byte-sized initialization until word-aligned or finished */

	unsigned char *d_byte = (unsigned char *)buf;
	unsigned char c_byte = (unsigned char)c;
 800289a:	b2c9      	uxtb	r1, r1
	/* do byte-sized initialization until finished */

	d_byte = (unsigned char *)d_word;
#endif

	while (n > 0) {
 800289c:	4402      	add	r2, r0
	unsigned char *d_byte = (unsigned char *)buf;
 800289e:	4603      	mov	r3, r0
	while (n > 0) {
 80028a0:	4293      	cmp	r3, r2
 80028a2:	d100      	bne.n	80028a6 <memset+0xc>
		*(d_byte++) = c_byte;
		n--;
	}

	return buf;
}
 80028a4:	4770      	bx	lr
		*(d_byte++) = c_byte;
 80028a6:	f803 1b01 	strb.w	r1, [r3], #1
		n--;
 80028aa:	e7f9      	b.n	80028a0 <memset+0x6>

080028ac <_stdout_hook_default>:
}
 80028ac:	f04f 30ff 	mov.w	r0, #4294967295
 80028b0:	4770      	bx	lr

080028b2 <stm32_exti_init>:
	defined(CONFIG_SOC_SERIES_STM32MP1X) || \
	defined(CONFIG_SOC_SERIES_STM32U5X) || \
	defined(CONFIG_SOC_SERIES_STM32WBX) || \
	defined(CONFIG_SOC_SERIES_STM32G4X) || \
	defined(CONFIG_SOC_SERIES_STM32WLX)
	IRQ_CONNECT(EXTI0_IRQn,
 80028b2:	2200      	movs	r2, #0
{
 80028b4:	b508      	push	{r3, lr}
	IRQ_CONNECT(EXTI0_IRQn,
 80028b6:	4611      	mov	r1, r2
 80028b8:	2006      	movs	r0, #6
 80028ba:	f7fe fa07 	bl	8000ccc <z_arm_irq_priority_set>
		CONFIG_EXTI_STM32_EXTI0_IRQ_PRI,
		__stm32_exti_isr_0, DEVICE_DT_GET(EXTI_NODE),
		0);
	IRQ_CONNECT(EXTI1_IRQn,
 80028be:	2200      	movs	r2, #0
 80028c0:	4611      	mov	r1, r2
 80028c2:	2007      	movs	r0, #7
 80028c4:	f7fe fa02 	bl	8000ccc <z_arm_irq_priority_set>
	IRQ_CONNECT(EXTI2_TSC_IRQn,
		CONFIG_EXTI_STM32_EXTI2_IRQ_PRI,
		__stm32_exti_isr_2, DEVICE_DT_GET(EXTI_NODE),
		0);
#else
	IRQ_CONNECT(EXTI2_IRQn,
 80028c8:	2200      	movs	r2, #0
 80028ca:	4611      	mov	r1, r2
 80028cc:	2008      	movs	r0, #8
 80028ce:	f7fe f9fd 	bl	8000ccc <z_arm_irq_priority_set>
		CONFIG_EXTI_STM32_EXTI2_IRQ_PRI,
		__stm32_exti_isr_2, DEVICE_DT_GET(EXTI_NODE),
		0);
#endif /* CONFIG_SOC_SERIES_STM32F3X */
	IRQ_CONNECT(EXTI3_IRQn,
 80028d2:	2200      	movs	r2, #0
 80028d4:	4611      	mov	r1, r2
 80028d6:	2009      	movs	r0, #9
 80028d8:	f7fe f9f8 	bl	8000ccc <z_arm_irq_priority_set>
		CONFIG_EXTI_STM32_EXTI3_IRQ_PRI,
		__stm32_exti_isr_3, DEVICE_DT_GET(EXTI_NODE),
		0);
	IRQ_CONNECT(EXTI4_IRQn,
 80028dc:	2200      	movs	r2, #0
 80028de:	4611      	mov	r1, r2
 80028e0:	200a      	movs	r0, #10
 80028e2:	f7fe f9f3 	bl	8000ccc <z_arm_irq_priority_set>
		__stm32_exti_isr_4, DEVICE_DT_GET(EXTI_NODE),
		0);
#if !defined(CONFIG_SOC_SERIES_STM32MP1X) && \
	!defined(CONFIG_SOC_SERIES_STM32L5X) && \
	!defined(CONFIG_SOC_SERIES_STM32U5X)
	IRQ_CONNECT(EXTI9_5_IRQn,
 80028e6:	2200      	movs	r2, #0
 80028e8:	4611      	mov	r1, r2
 80028ea:	2017      	movs	r0, #23
 80028ec:	f7fe f9ee 	bl	8000ccc <z_arm_irq_priority_set>
		CONFIG_EXTI_STM32_EXTI9_5_IRQ_PRI,
		__stm32_exti_isr_9_5, DEVICE_DT_GET(EXTI_NODE),
		0);
	IRQ_CONNECT(EXTI15_10_IRQn,
 80028f0:	2200      	movs	r2, #0
 80028f2:	4611      	mov	r1, r2
 80028f4:	2028      	movs	r0, #40	; 0x28
 80028f6:	f7fe f9e9 	bl	8000ccc <z_arm_irq_priority_set>
}
 80028fa:	2000      	movs	r0, #0
 80028fc:	bd08      	pop	{r3, pc}

080028fe <__stm32_exti_isr_15_10>:
	__stm32_exti_isr(10, 16, dev);
 80028fe:	6902      	ldr	r2, [r0, #16]
 8002900:	2110      	movs	r1, #16
 8002902:	200a      	movs	r0, #10
 8002904:	f7fe bcec 	b.w	80012e0 <__stm32_exti_isr.isra.0>

08002908 <__stm32_exti_isr_9_5>:
	__stm32_exti_isr(5, 10, dev);
 8002908:	6902      	ldr	r2, [r0, #16]
 800290a:	210a      	movs	r1, #10
 800290c:	2005      	movs	r0, #5
 800290e:	f7fe bce7 	b.w	80012e0 <__stm32_exti_isr.isra.0>

08002912 <__stm32_exti_isr_4>:
	__stm32_exti_isr(4, 5, dev);
 8002912:	6902      	ldr	r2, [r0, #16]
 8002914:	2105      	movs	r1, #5
 8002916:	2004      	movs	r0, #4
 8002918:	f7fe bce2 	b.w	80012e0 <__stm32_exti_isr.isra.0>

0800291c <__stm32_exti_isr_3>:
	__stm32_exti_isr(3, 4, dev);
 800291c:	6902      	ldr	r2, [r0, #16]
 800291e:	2104      	movs	r1, #4
 8002920:	2003      	movs	r0, #3
 8002922:	f7fe bcdd 	b.w	80012e0 <__stm32_exti_isr.isra.0>

08002926 <__stm32_exti_isr_2>:
	__stm32_exti_isr(2, 3, dev);
 8002926:	6902      	ldr	r2, [r0, #16]
 8002928:	2103      	movs	r1, #3
 800292a:	2002      	movs	r0, #2
 800292c:	f7fe bcd8 	b.w	80012e0 <__stm32_exti_isr.isra.0>

08002930 <__stm32_exti_isr_1>:
	__stm32_exti_isr(1, 2, dev);
 8002930:	6902      	ldr	r2, [r0, #16]
 8002932:	2102      	movs	r1, #2
 8002934:	2001      	movs	r0, #1
 8002936:	f7fe bcd3 	b.w	80012e0 <__stm32_exti_isr.isra.0>

0800293a <__stm32_exti_isr_0>:
	__stm32_exti_isr(0, 1, dev);
 800293a:	6902      	ldr	r2, [r0, #16]
 800293c:	2101      	movs	r1, #1
 800293e:	2000      	movs	r0, #0
 8002940:	f7fe bcce 	b.w	80012e0 <__stm32_exti_isr.isra.0>

08002944 <stm32_clock_control_on>:
	if (IN_RANGE(pclken->bus, STM32_PERIPH_BUS_MIN, STM32_PERIPH_BUS_MAX) == 0) {
 8002944:	680b      	ldr	r3, [r1, #0]
 8002946:	f1a3 0248 	sub.w	r2, r3, #72	; 0x48
 800294a:	2a18      	cmp	r2, #24
	reg = (uint32_t *)(DT_REG_ADDR(DT_NODELABEL(rcc)) + pclken->bus);
 800294c:	bf9f      	itttt	ls
 800294e:	f103 4380 	addls.w	r3, r3, #1073741824	; 0x40000000
 8002952:	f503 3304 	addls.w	r3, r3, #135168	; 0x21000
	reg_val |= pclken->enr;
 8002956:	6849      	ldrls	r1, [r1, #4]
	reg_val = *reg;
 8002958:	681a      	ldrls	r2, [r3, #0]
	reg_val |= pclken->enr;
 800295a:	bf9d      	ittte	ls
 800295c:	430a      	orrls	r2, r1
	return 0;
 800295e:	2000      	movls	r0, #0
	*reg = reg_val;
 8002960:	601a      	strls	r2, [r3, #0]
		return -ENOTSUP;
 8002962:	f06f 0085 	mvnhi.w	r0, #133	; 0x85
}
 8002966:	4770      	bx	lr

08002968 <stm32_clock_control_off>:
	if (IN_RANGE(pclken->bus, STM32_PERIPH_BUS_MIN, STM32_PERIPH_BUS_MAX) == 0) {
 8002968:	680b      	ldr	r3, [r1, #0]
 800296a:	f1a3 0248 	sub.w	r2, r3, #72	; 0x48
 800296e:	2a18      	cmp	r2, #24
	reg = (uint32_t *)(DT_REG_ADDR(DT_NODELABEL(rcc)) + pclken->bus);
 8002970:	bf9f      	itttt	ls
 8002972:	f103 4380 	addls.w	r3, r3, #1073741824	; 0x40000000
 8002976:	f503 3304 	addls.w	r3, r3, #135168	; 0x21000
	reg_val &= ~pclken->enr;
 800297a:	6849      	ldrls	r1, [r1, #4]
	reg_val = *reg;
 800297c:	681a      	ldrls	r2, [r3, #0]
	reg_val &= ~pclken->enr;
 800297e:	bf9d      	ittte	ls
 8002980:	438a      	bicls	r2, r1
	return 0;
 8002982:	2000      	movls	r0, #0
	*reg = reg_val;
 8002984:	601a      	strls	r2, [r3, #0]
		return -ENOTSUP;
 8002986:	f06f 0085 	mvnhi.w	r0, #133	; 0x85
}
 800298a:	4770      	bx	lr

0800298c <stm32_clock_control_configure>:
	err = enabled_clock(pclken->bus);
 800298c:	680b      	ldr	r3, [r1, #0]
	switch (src_clk) {
 800298e:	2b01      	cmp	r3, #1
 8002990:	d002      	beq.n	8002998 <stm32_clock_control_configure+0xc>
 8002992:	3b06      	subs	r3, #6
 8002994:	2b04      	cmp	r3, #4
 8002996:	d80f      	bhi.n	80029b8 <stm32_clock_control_configure+0x2c>
	dt_val = STM32_CLOCK_VAL_GET(pclken->enr) <<
 8002998:	6849      	ldr	r1, [r1, #4]
					STM32_CLOCK_REG_GET(pclken->enr));
 800299a:	b2cb      	uxtb	r3, r1
	reg = (uint32_t *)(DT_REG_ADDR(DT_NODELABEL(rcc)) +
 800299c:	f103 4380 	add.w	r3, r3, #1073741824	; 0x40000000
 80029a0:	f503 3304 	add.w	r3, r3, #135168	; 0x21000
	dt_val = STM32_CLOCK_VAL_GET(pclken->enr) <<
 80029a4:	f3c1 4202 	ubfx	r2, r1, #16, #3
	reg_val = *reg;
 80029a8:	6818      	ldr	r0, [r3, #0]
					STM32_CLOCK_SHIFT_GET(pclken->enr);
 80029aa:	f3c1 2104 	ubfx	r1, r1, #8, #5
	dt_val = STM32_CLOCK_VAL_GET(pclken->enr) <<
 80029ae:	408a      	lsls	r2, r1
	reg_val |= dt_val;
 80029b0:	4302      	orrs	r2, r0
	*reg = reg_val;
 80029b2:	601a      	str	r2, [r3, #0]
	return 0;
 80029b4:	2000      	movs	r0, #0
 80029b6:	4770      	bx	lr
	switch (src_clk) {
 80029b8:	f06f 0085 	mvn.w	r0, #133	; 0x85
}
 80029bc:	4770      	bx	lr

080029be <gpio_stm32_port_get_raw>:
	GPIO_TypeDef *gpio = (GPIO_TypeDef *)cfg->base;
 80029be:	6843      	ldr	r3, [r0, #4]
 80029c0:	685b      	ldr	r3, [r3, #4]
  * @param  GPIOx GPIO Port
  * @retval Input data register value of port
  */
__STATIC_INLINE uint32_t LL_GPIO_ReadInputPort(GPIO_TypeDef *GPIOx)
{
  return (uint32_t)(READ_REG(GPIOx->IDR));
 80029c2:	691b      	ldr	r3, [r3, #16]
	*value = LL_GPIO_ReadInputPort(gpio);
 80029c4:	600b      	str	r3, [r1, #0]
}
 80029c6:	2000      	movs	r0, #0
 80029c8:	4770      	bx	lr

080029ca <gpio_stm32_port_set_masked_raw>:
	GPIO_TypeDef *gpio = (GPIO_TypeDef *)cfg->base;
 80029ca:	6843      	ldr	r3, [r0, #4]
 80029cc:	685b      	ldr	r3, [r3, #4]
  * @param  GPIOx GPIO Port
  * @retval Output data register value of port
  */
__STATIC_INLINE uint32_t LL_GPIO_ReadOutputPort(GPIO_TypeDef *GPIOx)
{
  return (uint32_t)(READ_REG(GPIOx->ODR));
 80029ce:	6958      	ldr	r0, [r3, #20]
	LL_GPIO_WriteOutputPort(gpio, (port_value & ~mask) | (mask & value));
 80029d0:	4042      	eors	r2, r0
 80029d2:	400a      	ands	r2, r1
 80029d4:	4042      	eors	r2, r0
  WRITE_REG(GPIOx->ODR, PortValue);
 80029d6:	615a      	str	r2, [r3, #20]
}
 80029d8:	2000      	movs	r0, #0
 80029da:	4770      	bx	lr

080029dc <gpio_stm32_port_set_bits_raw>:
	GPIO_TypeDef *gpio = (GPIO_TypeDef *)cfg->base;
 80029dc:	6843      	ldr	r3, [r0, #4]
 80029de:	685b      	ldr	r3, [r3, #4]
}
 80029e0:	2000      	movs	r0, #0
	WRITE_REG(gpio->BSRR, pins);
 80029e2:	6199      	str	r1, [r3, #24]
}
 80029e4:	4770      	bx	lr

080029e6 <gpio_stm32_port_clear_bits_raw>:
	GPIO_TypeDef *gpio = (GPIO_TypeDef *)cfg->base;
 80029e6:	6843      	ldr	r3, [r0, #4]
 80029e8:	685b      	ldr	r3, [r3, #4]
}
 80029ea:	2000      	movs	r0, #0
  *         @arg @ref LL_GPIO_PIN_ALL
  * @retval None
  */
__STATIC_INLINE void LL_GPIO_ResetOutputPin(GPIO_TypeDef *GPIOx, uint32_t PinMask)
{
  WRITE_REG(GPIOx->BRR, PinMask);
 80029ec:	6299      	str	r1, [r3, #40]	; 0x28
 80029ee:	4770      	bx	lr

080029f0 <gpio_stm32_port_toggle_bits>:
	GPIO_TypeDef *gpio = (GPIO_TypeDef *)cfg->base;
 80029f0:	6843      	ldr	r3, [r0, #4]
 80029f2:	685a      	ldr	r2, [r3, #4]
	WRITE_REG(gpio->ODR, READ_REG(gpio->ODR) ^ pins);
 80029f4:	6953      	ldr	r3, [r2, #20]
 80029f6:	404b      	eors	r3, r1
 80029f8:	6153      	str	r3, [r2, #20]
}
 80029fa:	2000      	movs	r0, #0
 80029fc:	4770      	bx	lr

080029fe <gpio_stm32_manage_callback>:
{
 80029fe:	b510      	push	{r4, lr}
	struct gpio_stm32_data *data = dev->data;
 8002a00:	6903      	ldr	r3, [r0, #16]
 *
 * @return A pointer on the first node of the list (or NULL if none)
 */
static inline sys_snode_t *sys_slist_peek_head(sys_slist_t *list)
{
	return list->head;
 8002a02:	6898      	ldr	r0, [r3, #8]
					bool set)
{
	__ASSERT(callback, "No callback!");
	__ASSERT(callback->handler, "No callback handler!");

	if (!sys_slist_is_empty(callbacks)) {
 8002a04:	b148      	cbz	r0, 8002a1a <gpio_stm32_manage_callback+0x1c>
 */
static inline bool sys_slist_find_and_remove(sys_slist_t *list,
					     sys_snode_t *node);

/** @} */
Z_GENLIST_FIND_AND_REMOVE(slist, snode)
 8002a06:	4288      	cmp	r0, r1
 8002a08:	d113      	bne.n	8002a32 <gpio_stm32_manage_callback+0x34>
Z_GENLIST_REMOVE(slist, snode)
 8002a0a:	68dc      	ldr	r4, [r3, #12]
	return node->next;
 8002a0c:	6808      	ldr	r0, [r1, #0]
	list->head = node;
 8002a0e:	6098      	str	r0, [r3, #8]
Z_GENLIST_REMOVE(slist, snode)
 8002a10:	42a1      	cmp	r1, r4
 8002a12:	d100      	bne.n	8002a16 <gpio_stm32_manage_callback+0x18>
	list->tail = node;
 8002a14:	60d8      	str	r0, [r3, #12]
	parent->next = child;
 8002a16:	2000      	movs	r0, #0
 8002a18:	6008      	str	r0, [r1, #0]
				return -EINVAL;
			}
		}
	}

	if (set) {
 8002a1a:	b97a      	cbnz	r2, 8002a3c <gpio_stm32_manage_callback+0x3e>
		sys_slist_prepend(callbacks, &callback->node);
	}

	return 0;
 8002a1c:	2000      	movs	r0, #0
}
 8002a1e:	bd10      	pop	{r4, pc}
Z_GENLIST_FIND_AND_REMOVE(slist, snode)
 8002a20:	4281      	cmp	r1, r0
 8002a22:	d106      	bne.n	8002a32 <gpio_stm32_manage_callback+0x34>
	return node->next;
 8002a24:	6808      	ldr	r0, [r1, #0]
	parent->next = child;
 8002a26:	6020      	str	r0, [r4, #0]
Z_GENLIST_REMOVE(slist, snode)
 8002a28:	68d8      	ldr	r0, [r3, #12]
 8002a2a:	4281      	cmp	r1, r0
 8002a2c:	d1f3      	bne.n	8002a16 <gpio_stm32_manage_callback+0x18>
	list->tail = node;
 8002a2e:	60dc      	str	r4, [r3, #12]
}
 8002a30:	e7f1      	b.n	8002a16 <gpio_stm32_manage_callback+0x18>
	return node->next;
 8002a32:	4604      	mov	r4, r0
 8002a34:	6800      	ldr	r0, [r0, #0]
Z_GENLIST_FIND_AND_REMOVE(slist, snode)
 8002a36:	2800      	cmp	r0, #0
 8002a38:	d1f2      	bne.n	8002a20 <gpio_stm32_manage_callback+0x22>
			if (!set) {
 8002a3a:	b13a      	cbz	r2, 8002a4c <gpio_stm32_manage_callback+0x4e>
	return list->head;
 8002a3c:	689a      	ldr	r2, [r3, #8]
	parent->next = child;
 8002a3e:	600a      	str	r2, [r1, #0]
Z_GENLIST_PREPEND(slist, snode)
 8002a40:	68da      	ldr	r2, [r3, #12]
	list->head = node;
 8002a42:	6099      	str	r1, [r3, #8]
Z_GENLIST_PREPEND(slist, snode)
 8002a44:	2a00      	cmp	r2, #0
 8002a46:	d1e9      	bne.n	8002a1c <gpio_stm32_manage_callback+0x1e>
	list->tail = node;
 8002a48:	60d9      	str	r1, [r3, #12]
}
 8002a4a:	e7e7      	b.n	8002a1c <gpio_stm32_manage_callback+0x1e>
				return -EINVAL;
 8002a4c:	f06f 0015 	mvn.w	r0, #21
	return gpio_manage_callback(&data->cb, callback, set);
 8002a50:	e7e5      	b.n	8002a1e <gpio_stm32_manage_callback+0x20>

08002a52 <gpio_stm32_configure_raw.isra.0>:
static void gpio_stm32_configure_raw(const struct device *dev, int pin,
 8002a52:	b5f0      	push	{r4, r5, r6, r7, lr}
	GPIO_TypeDef *gpio = (GPIO_TypeDef *)cfg->base;
 8002a54:	6844      	ldr	r4, [r0, #4]
	pinval = 1 << pin;
 8002a56:	2001      	movs	r0, #1
  MODIFY_REG(GPIOx->OTYPER, PinMask, (PinMask * OutputType));
 8002a58:	6867      	ldr	r7, [r4, #4]
 8002a5a:	4088      	lsls	r0, r1
static void gpio_stm32_configure_raw(const struct device *dev, int pin,
 8002a5c:	461e      	mov	r6, r3
	LL_GPIO_SetPinOutputType(gpio, pin_ll, otype >> STM32_OTYPER_SHIFT);
 8002a5e:	f3c2 1380 	ubfx	r3, r2, #6, #1
 8002a62:	ea27 0700 	bic.w	r7, r7, r0
 8002a66:	408b      	lsls	r3, r1
 8002a68:	433b      	orrs	r3, r7
 8002a6a:	6063      	str	r3, [r4, #4]
   __ASM ("rbit %0, %1" : "=r" (result) : "r" (value) );
 8002a6c:	fa90 f7a0 	rbit	r7, r0
  return __builtin_clz(value);
 8002a70:	fab7 f787 	clz	r7, r7
  MODIFY_REG(GPIOx->OSPEEDR, (GPIO_OSPEEDR_OSPEED0 << (POSITION_VAL(Pin) * 2U)),
 8002a74:	f8d4 c008 	ldr.w	ip, [r4, #8]
 8002a78:	f04f 0e03 	mov.w	lr, #3
 8002a7c:	007f      	lsls	r7, r7, #1
 8002a7e:	fa0e f707 	lsl.w	r7, lr, r7
 8002a82:	ea2c 0c07 	bic.w	ip, ip, r7
   __ASM ("rbit %0, %1" : "=r" (result) : "r" (value) );
 8002a86:	fa90 f7a0 	rbit	r7, r0
  return __builtin_clz(value);
 8002a8a:	fab7 f787 	clz	r7, r7
	LL_GPIO_SetPinSpeed(gpio, pin_ll, ospeed >> STM32_OSPEEDR_SHIFT);
 8002a8e:	f3c2 13c1 	ubfx	r3, r2, #7, #2
 8002a92:	007f      	lsls	r7, r7, #1
 8002a94:	40bb      	lsls	r3, r7
 8002a96:	ea43 030c 	orr.w	r3, r3, ip
 8002a9a:	60a3      	str	r3, [r4, #8]
   __ASM ("rbit %0, %1" : "=r" (result) : "r" (value) );
 8002a9c:	fa90 f3a0 	rbit	r3, r0
  return __builtin_clz(value);
 8002aa0:	fab3 f383 	clz	r3, r3
  MODIFY_REG(GPIOx->PUPDR, (GPIO_PUPDR_PUPD0 << (POSITION_VAL(Pin) * 2U)), (Pull << (POSITION_VAL(Pin) * 2U)));
 8002aa4:	68e7      	ldr	r7, [r4, #12]
 8002aa6:	005b      	lsls	r3, r3, #1
 8002aa8:	fa0e f303 	lsl.w	r3, lr, r3
 8002aac:	ea27 0703 	bic.w	r7, r7, r3
   __ASM ("rbit %0, %1" : "=r" (result) : "r" (value) );
 8002ab0:	fa90 f3a0 	rbit	r3, r0
  return __builtin_clz(value);
 8002ab4:	fab3 f383 	clz	r3, r3
 8002ab8:	f002 0530 	and.w	r5, r2, #48	; 0x30
 8002abc:	005b      	lsls	r3, r3, #1
	LL_GPIO_SetPinPull(gpio, pin_ll, pupd >> STM32_PUPDR_SHIFT);
 8002abe:	f3c2 2241 	ubfx	r2, r2, #9, #2
 8002ac2:	409a      	lsls	r2, r3
 8002ac4:	433a      	orrs	r2, r7
	if (mode == STM32_MODER_ALT_MODE) {
 8002ac6:	2d20      	cmp	r5, #32
 8002ac8:	60e2      	str	r2, [r4, #12]
 8002aca:	d116      	bne.n	8002afa <gpio_stm32_configure_raw.isra.0+0xa8>
		if (pin < 8) {
 8002acc:	2907      	cmp	r1, #7
 8002ace:	dc2b      	bgt.n	8002b28 <gpio_stm32_configure_raw.isra.0+0xd6>
   __ASM ("rbit %0, %1" : "=r" (result) : "r" (value) );
 8002ad0:	fa90 f3a0 	rbit	r3, r0
  MODIFY_REG(GPIOx->AFR[0], (GPIO_AFRL_AFSEL0 << (POSITION_VAL(Pin) * 4U)),
 8002ad4:	6a22      	ldr	r2, [r4, #32]
  if (value == 0U)
 8002ad6:	b32b      	cbz	r3, 8002b24 <gpio_stm32_configure_raw.isra.0+0xd2>
  return __builtin_clz(value);
 8002ad8:	fab3 f383 	clz	r3, r3
 8002adc:	009b      	lsls	r3, r3, #2
 8002ade:	210f      	movs	r1, #15
 8002ae0:	fa01 f303 	lsl.w	r3, r1, r3
 8002ae4:	ea22 0203 	bic.w	r2, r2, r3
   __ASM ("rbit %0, %1" : "=r" (result) : "r" (value) );
 8002ae8:	fa90 f3a0 	rbit	r3, r0
  return __builtin_clz(value);
 8002aec:	fab3 f383 	clz	r3, r3
 8002af0:	009b      	lsls	r3, r3, #2
 8002af2:	fa06 f303 	lsl.w	r3, r6, r3
 8002af6:	4313      	orrs	r3, r2
 8002af8:	6223      	str	r3, [r4, #32]
   __ASM ("rbit %0, %1" : "=r" (result) : "r" (value) );
 8002afa:	fa90 f3a0 	rbit	r3, r0
  return __builtin_clz(value);
 8002afe:	fab3 f383 	clz	r3, r3
  MODIFY_REG(GPIOx->MODER, (GPIO_MODER_MODE0 << (POSITION_VAL(Pin) * 2U)), (Mode << (POSITION_VAL(Pin) * 2U)));
 8002b02:	6822      	ldr	r2, [r4, #0]
   __ASM ("rbit %0, %1" : "=r" (result) : "r" (value) );
 8002b04:	fa90 f0a0 	rbit	r0, r0
 8002b08:	005b      	lsls	r3, r3, #1
 8002b0a:	2103      	movs	r1, #3
  return __builtin_clz(value);
 8002b0c:	fab0 f080 	clz	r0, r0
	LL_GPIO_SetPinMode(gpio, pin_ll, mode >> STM32_MODER_SHIFT);
 8002b10:	092d      	lsrs	r5, r5, #4
 8002b12:	fa01 f303 	lsl.w	r3, r1, r3
 8002b16:	0040      	lsls	r0, r0, #1
 8002b18:	ea22 0303 	bic.w	r3, r2, r3
 8002b1c:	4085      	lsls	r5, r0
 8002b1e:	431d      	orrs	r5, r3
 8002b20:	6025      	str	r5, [r4, #0]
}
 8002b22:	bdf0      	pop	{r4, r5, r6, r7, pc}
    return 32U;
 8002b24:	462b      	mov	r3, r5
 8002b26:	e7d9      	b.n	8002adc <gpio_stm32_configure_raw.isra.0+0x8a>
  MODIFY_REG(GPIOx->AFR[1], (GPIO_AFRH_AFSEL8 << (POSITION_VAL(Pin >> 8U) * 4U)),
 8002b28:	0a03      	lsrs	r3, r0, #8
 8002b2a:	6a61      	ldr	r1, [r4, #36]	; 0x24
   __ASM ("rbit %0, %1" : "=r" (result) : "r" (value) );
 8002b2c:	fa93 f2a3 	rbit	r2, r3
  if (value == 0U)
 8002b30:	b182      	cbz	r2, 8002b54 <gpio_stm32_configure_raw.isra.0+0x102>
  return __builtin_clz(value);
 8002b32:	fab2 f282 	clz	r2, r2
 8002b36:	0092      	lsls	r2, r2, #2
 8002b38:	270f      	movs	r7, #15
   __ASM ("rbit %0, %1" : "=r" (result) : "r" (value) );
 8002b3a:	fa93 f3a3 	rbit	r3, r3
  return __builtin_clz(value);
 8002b3e:	fab3 f383 	clz	r3, r3
 8002b42:	fa07 f202 	lsl.w	r2, r7, r2
 8002b46:	009b      	lsls	r3, r3, #2
 8002b48:	ea21 0202 	bic.w	r2, r1, r2
 8002b4c:	409e      	lsls	r6, r3
 8002b4e:	4316      	orrs	r6, r2
 8002b50:	6266      	str	r6, [r4, #36]	; 0x24
}
 8002b52:	e7d2      	b.n	8002afa <gpio_stm32_configure_raw.isra.0+0xa8>
    return 32U;
 8002b54:	462a      	mov	r2, r5
 8002b56:	e7ee      	b.n	8002b36 <gpio_stm32_configure_raw.isra.0+0xe4>

08002b58 <gpio_stm32_config>:
{
 8002b58:	4613      	mov	r3, r2
	if ((flags & GPIO_OUTPUT) != 0) {
 8002b5a:	039a      	lsls	r2, r3, #14
{
 8002b5c:	b510      	push	{r4, lr}
	if ((flags & GPIO_OUTPUT) != 0) {
 8002b5e:	d518      	bpl.n	8002b92 <gpio_stm32_config+0x3a>
		if ((flags & GPIO_SINGLE_ENDED) != 0) {
 8002b60:	079c      	lsls	r4, r3, #30
 8002b62:	d50f      	bpl.n	8002b84 <gpio_stm32_config+0x2c>
			if (flags & GPIO_LINE_OPEN_DRAIN) {
 8002b64:	075a      	lsls	r2, r3, #29
 8002b66:	d52d      	bpl.n	8002bc4 <gpio_stm32_config+0x6c>
				*pincfg |= STM32_PINCFG_OPEN_DRAIN;
 8002b68:	2250      	movs	r2, #80	; 0x50
		if ((flags & GPIO_PULL_UP) != 0) {
 8002b6a:	06dc      	lsls	r4, r3, #27
 8002b6c:	d50c      	bpl.n	8002b88 <gpio_stm32_config+0x30>
			*pincfg |= STM32_PINCFG_PULL_UP;
 8002b6e:	f442 7200 	orr.w	r2, r2, #512	; 0x200
		if ((flags & GPIO_OUTPUT_INIT_HIGH) != 0) {
 8002b72:	f413 2f00 	tst.w	r3, #524288	; 0x80000
	const struct gpio_stm32_config *cfg = dev->config;
 8002b76:	6844      	ldr	r4, [r0, #4]
		if ((flags & GPIO_OUTPUT_INIT_HIGH) != 0) {
 8002b78:	d018      	beq.n	8002bac <gpio_stm32_config+0x54>
	GPIO_TypeDef *gpio = (GPIO_TypeDef *)cfg->base;
 8002b7a:	6864      	ldr	r4, [r4, #4]
			gpio_stm32_port_set_bits_raw(dev, BIT(pin));
 8002b7c:	2301      	movs	r3, #1
 8002b7e:	408b      	lsls	r3, r1
	WRITE_REG(gpio->BSRR, pins);
 8002b80:	61a3      	str	r3, [r4, #24]
	return 0;
 8002b82:	e00d      	b.n	8002ba0 <gpio_stm32_config+0x48>
		*pincfg = STM32_PINCFG_MODE_OUTPUT;
 8002b84:	2210      	movs	r2, #16
 8002b86:	e7f0      	b.n	8002b6a <gpio_stm32_config+0x12>
		} else if ((flags & GPIO_PULL_DOWN) != 0) {
 8002b88:	069c      	lsls	r4, r3, #26
 8002b8a:	d5f2      	bpl.n	8002b72 <gpio_stm32_config+0x1a>
			*pincfg |= STM32_PINCFG_PULL_DOWN;
 8002b8c:	f442 6280 	orr.w	r2, r2, #1024	; 0x400
	if (err != 0) {
 8002b90:	e7ef      	b.n	8002b72 <gpio_stm32_config+0x1a>
	} else if  ((flags & GPIO_INPUT) != 0) {
 8002b92:	03dc      	lsls	r4, r3, #15
 8002b94:	d511      	bpl.n	8002bba <gpio_stm32_config+0x62>
		if ((flags & GPIO_PULL_UP) != 0) {
 8002b96:	06da      	lsls	r2, r3, #27
 8002b98:	d411      	bmi.n	8002bbe <gpio_stm32_config+0x66>
		} else if ((flags & GPIO_PULL_DOWN) != 0) {
 8002b9a:	f3c3 1340 	ubfx	r3, r3, #5, #1
 8002b9e:	029a      	lsls	r2, r3, #10
	gpio_stm32_configure_raw(dev, pin, pincfg, 0);
 8002ba0:	6840      	ldr	r0, [r0, #4]
 8002ba2:	2300      	movs	r3, #0
 8002ba4:	f7ff ff55 	bl	8002a52 <gpio_stm32_configure_raw.isra.0>
	return 0;
 8002ba8:	2000      	movs	r0, #0
}
 8002baa:	bd10      	pop	{r4, pc}
		} else if ((flags & GPIO_OUTPUT_INIT_LOW) != 0) {
 8002bac:	035b      	lsls	r3, r3, #13
 8002bae:	d5f7      	bpl.n	8002ba0 <gpio_stm32_config+0x48>
	GPIO_TypeDef *gpio = (GPIO_TypeDef *)cfg->base;
 8002bb0:	6864      	ldr	r4, [r4, #4]
			gpio_stm32_port_clear_bits_raw(dev, BIT(pin));
 8002bb2:	2301      	movs	r3, #1
 8002bb4:	408b      	lsls	r3, r1
  WRITE_REG(GPIOx->BRR, PinMask);
 8002bb6:	62a3      	str	r3, [r4, #40]	; 0x28
	return 0;
 8002bb8:	e7f2      	b.n	8002ba0 <gpio_stm32_config+0x48>
		*pincfg = STM32_PINCFG_MODE_ANALOG;
 8002bba:	2230      	movs	r2, #48	; 0x30
 8002bbc:	e7f0      	b.n	8002ba0 <gpio_stm32_config+0x48>
			*pincfg |= STM32_PINCFG_PULL_UP;
 8002bbe:	f44f 7200 	mov.w	r2, #512	; 0x200
 8002bc2:	e7ed      	b.n	8002ba0 <gpio_stm32_config+0x48>
				return -ENOTSUP;
 8002bc4:	f06f 0085 	mvn.w	r0, #133	; 0x85
 8002bc8:	e7ef      	b.n	8002baa <gpio_stm32_config+0x52>

08002bca <gpio_stm32_isr>:
{
 8002bca:	b570      	push	{r4, r5, r6, lr}
 8002bcc:	460b      	mov	r3, r1
 8002bce:	6889      	ldr	r1, [r1, #8]
					const struct device *port,
					uint32_t pins)
{
	struct gpio_callback *cb, *tmp;

	SYS_SLIST_FOR_EACH_CONTAINER_SAFE(list, cb, tmp, node) {
 8002bd0:	b121      	cbz	r1, 8002bdc <gpio_stm32_isr+0x12>
	gpio_fire_callbacks(&data->cb, data->dev, BIT(line));
 8002bd2:	2501      	movs	r5, #1
 8002bd4:	685e      	ldr	r6, [r3, #4]
	return node->next;
 8002bd6:	680c      	ldr	r4, [r1, #0]
 8002bd8:	4085      	lsls	r5, r0
 8002bda:	b901      	cbnz	r1, 8002bde <gpio_stm32_isr+0x14>
}
 8002bdc:	bd70      	pop	{r4, r5, r6, pc}
		if (cb->pin_mask & pins) {
 8002bde:	688a      	ldr	r2, [r1, #8]
 8002be0:	402a      	ands	r2, r5
 8002be2:	d002      	beq.n	8002bea <gpio_stm32_isr+0x20>
			__ASSERT(cb->handler, "No callback handler!");
			cb->handler(port, cb, cb->pin_mask & pins);
 8002be4:	684b      	ldr	r3, [r1, #4]
 8002be6:	4630      	mov	r0, r6
 8002be8:	4798      	blx	r3
	SYS_SLIST_FOR_EACH_CONTAINER_SAFE(list, cb, tmp, node) {
 8002bea:	b11c      	cbz	r4, 8002bf4 <gpio_stm32_isr+0x2a>
 8002bec:	6823      	ldr	r3, [r4, #0]
 8002bee:	4621      	mov	r1, r4
 8002bf0:	461c      	mov	r4, r3
 8002bf2:	e7f2      	b.n	8002bda <gpio_stm32_isr+0x10>
 8002bf4:	4623      	mov	r3, r4
 8002bf6:	e7fa      	b.n	8002bee <gpio_stm32_isr+0x24>

08002bf8 <gpio_stm32_configure>:
{
 8002bf8:	b5f8      	push	{r3, r4, r5, r6, r7, lr}
 8002bfa:	461f      	mov	r7, r3
 8002bfc:	4604      	mov	r4, r0
	gpio_stm32_configure_raw(dev, pin, conf, func);
 8002bfe:	6840      	ldr	r0, [r0, #4]
{
 8002c00:	460e      	mov	r6, r1
 8002c02:	4615      	mov	r5, r2
	gpio_stm32_configure_raw(dev, pin, conf, func);
 8002c04:	f7ff ff25 	bl	8002a52 <gpio_stm32_configure_raw.isra.0>
	if (func == IS_GPIO_OUT) {
 8002c08:	2f11      	cmp	r7, #17
 8002c0a:	d108      	bne.n	8002c1e <gpio_stm32_configure+0x26>
			gpio_stm32_port_set_bits_raw(dev, BIT(pin));
 8002c0c:	2301      	movs	r3, #1
 8002c0e:	fa03 f606 	lsl.w	r6, r3, r6
	GPIO_TypeDef *gpio = (GPIO_TypeDef *)cfg->base;
 8002c12:	6863      	ldr	r3, [r4, #4]
 8002c14:	685b      	ldr	r3, [r3, #4]
		if (gpio_out == STM32_ODR_1) {
 8002c16:	052a      	lsls	r2, r5, #20
	WRITE_REG(gpio->BSRR, pins);
 8002c18:	bf4c      	ite	mi
 8002c1a:	619e      	strmi	r6, [r3, #24]
 8002c1c:	629e      	strpl	r6, [r3, #40]	; 0x28
}
 8002c1e:	2000      	movs	r0, #0
 8002c20:	bdf8      	pop	{r3, r4, r5, r6, r7, pc}

08002c22 <uart_stm32_set_baudrate>:
{
 8002c22:	b537      	push	{r0, r1, r2, r4, r5, lr}
		if (clock_control_get_rate(data->clock,
 8002c24:	6903      	ldr	r3, [r0, #16]
	const struct uart_stm32_config *config = dev->config;
 8002c26:	6845      	ldr	r5, [r0, #4]
		if (clock_control_get_rate(data->clock,
 8002c28:	6858      	ldr	r0, [r3, #4]
					 uint32_t *rate)
{
	const struct clock_control_driver_api *api =
		(const struct clock_control_driver_api *)dev->api;

	if (api->get_rate == NULL) {
 8002c2a:	6883      	ldr	r3, [r0, #8]
 8002c2c:	68db      	ldr	r3, [r3, #12]
{
 8002c2e:	460c      	mov	r4, r1
					   (clock_control_subsys_t)&config->pclken[0],
 8002c30:	6869      	ldr	r1, [r5, #4]
 8002c32:	b183      	cbz	r3, 8002c56 <uart_stm32_set_baudrate+0x34>
		return -ENOSYS;
	}

	return api->get_rate(dev, sys, rate);
 8002c34:	aa01      	add	r2, sp, #4
 8002c36:	4798      	blx	r3
		if (clock_control_get_rate(data->clock,
 8002c38:	2800      	cmp	r0, #0
 8002c3a:	db0c      	blt.n	8002c56 <uart_stm32_set_baudrate+0x34>
		LL_USART_SetOverSampling(config->usart,
 8002c3c:	682a      	ldr	r2, [r5, #0]
  MODIFY_REG(USARTx->CR1, USART_CR1_OVER8, OverSampling);
 8002c3e:	6813      	ldr	r3, [r2, #0]
 8002c40:	f423 4300 	bic.w	r3, r3, #32768	; 0x8000
 8002c44:	6013      	str	r3, [r2, #0]
    USARTx->BRR = (uint16_t)(__LL_USART_DIV_SAMPLING16(PeriphClk, BaudRate));
 8002c46:	9b01      	ldr	r3, [sp, #4]
		LL_USART_SetBaudRate(config->usart,
 8002c48:	682a      	ldr	r2, [r5, #0]
 8002c4a:	eb03 0354 	add.w	r3, r3, r4, lsr #1
 8002c4e:	fbb3 f3f4 	udiv	r3, r3, r4
 8002c52:	b29b      	uxth	r3, r3
 8002c54:	60d3      	str	r3, [r2, #12]
}
 8002c56:	b003      	add	sp, #12
 8002c58:	bd30      	pop	{r4, r5, pc}

08002c5a <uart_stm32_err_check>:
	const struct uart_stm32_config *config = dev->config;
 8002c5a:	6843      	ldr	r3, [r0, #4]
	if (LL_USART_IsActiveFlag_ORE(config->usart)) {
 8002c5c:	681a      	ldr	r2, [r3, #0]
  return ((READ_BIT(USARTx->ISR, USART_ISR_ORE) == (USART_ISR_ORE)) ? 1UL : 0UL);
 8002c5e:	69d0      	ldr	r0, [r2, #28]
  return ((READ_BIT(USARTx->ISR, USART_ISR_PE) == (USART_ISR_PE)) ? 1UL : 0UL);
 8002c60:	69d1      	ldr	r1, [r2, #28]
 8002c62:	07c9      	lsls	r1, r1, #31
  return ((READ_BIT(USARTx->ISR, USART_ISR_FE) == (USART_ISR_FE)) ? 1UL : 0UL);
 8002c64:	69d1      	ldr	r1, [r2, #28]
  return ((READ_BIT(USARTx->ISR, USART_ISR_ORE) == (USART_ISR_ORE)) ? 1UL : 0UL);
 8002c66:	f3c0 00c0 	ubfx	r0, r0, #3, #1
		err |= UART_ERROR_PARITY;
 8002c6a:	bf48      	it	mi
 8002c6c:	f040 0002 	orrmi.w	r0, r0, #2
  return ((READ_BIT(USARTx->ISR, USART_ISR_FE) == (USART_ISR_FE)) ? 1UL : 0UL);
 8002c70:	0789      	lsls	r1, r1, #30
  return ((READ_BIT(USARTx->ISR, USART_ISR_LBDF) == (USART_ISR_LBDF)) ? 1UL : 0UL);
 8002c72:	69d1      	ldr	r1, [r2, #28]
		err |= UART_ERROR_FRAMING;
 8002c74:	bf48      	it	mi
 8002c76:	f040 0004 	orrmi.w	r0, r0, #4
 8002c7a:	05c9      	lsls	r1, r1, #23
  * @param  USARTx USART Instance
  * @retval None
  */
__STATIC_INLINE void LL_USART_ClearFlag_LBD(USART_TypeDef *USARTx)
{
  WRITE_REG(USARTx->ICR, USART_ICR_LBDCF);
 8002c7c:	bf42      	ittt	mi
 8002c7e:	f44f 7180 	movmi.w	r1, #256	; 0x100
		err |= UART_BREAK;
 8002c82:	f040 0008 	orrmi.w	r0, r0, #8
 8002c86:	6211      	strmi	r1, [r2, #32]
	if (err & UART_ERROR_OVERRUN) {
 8002c88:	07c2      	lsls	r2, r0, #31
		LL_USART_ClearFlag_ORE(config->usart);
 8002c8a:	bf42      	ittt	mi
 8002c8c:	681a      	ldrmi	r2, [r3, #0]
  WRITE_REG(USARTx->ICR, USART_ICR_ORECF);
 8002c8e:	2108      	movmi	r1, #8
 8002c90:	6211      	strmi	r1, [r2, #32]
	if (err & UART_ERROR_PARITY) {
 8002c92:	0781      	lsls	r1, r0, #30
		LL_USART_ClearFlag_PE(config->usart);
 8002c94:	bf42      	ittt	mi
 8002c96:	681a      	ldrmi	r2, [r3, #0]
  WRITE_REG(USARTx->ICR, USART_ICR_PECF);
 8002c98:	2101      	movmi	r1, #1
 8002c9a:	6211      	strmi	r1, [r2, #32]
	if (err & UART_ERROR_FRAMING) {
 8002c9c:	0742      	lsls	r2, r0, #29
		LL_USART_ClearFlag_FE(config->usart);
 8002c9e:	bf42      	ittt	mi
 8002ca0:	681a      	ldrmi	r2, [r3, #0]
  WRITE_REG(USARTx->ICR, USART_ICR_FECF);
 8002ca2:	2102      	movmi	r1, #2
 8002ca4:	6211      	strmi	r1, [r2, #32]
	LL_USART_ClearFlag_NE(config->usart);
 8002ca6:	681b      	ldr	r3, [r3, #0]
  WRITE_REG(USARTx->ICR, USART_ICR_NECF);
 8002ca8:	2204      	movs	r2, #4
 8002caa:	621a      	str	r2, [r3, #32]
}
 8002cac:	4770      	bx	lr

08002cae <uart_stm32_poll_out>:
{
 8002cae:	b510      	push	{r4, lr}
	const struct uart_stm32_config *config = dev->config;
 8002cb0:	6840      	ldr	r0, [r0, #4]
		if (LL_USART_IsActiveFlag_TXE(config->usart)) {
 8002cb2:	6802      	ldr	r2, [r0, #0]
  return ((READ_BIT(USARTx->ISR, USART_ISR_TXE) == (USART_ISR_TXE)) ? 1UL : 0UL);
 8002cb4:	69d3      	ldr	r3, [r2, #28]
 8002cb6:	061b      	lsls	r3, r3, #24
 8002cb8:	d5fc      	bpl.n	8002cb4 <uart_stm32_poll_out+0x6>
 8002cba:	f04f 0210 	mov.w	r2, #16
 8002cbe:	f3ef 8311 	mrs	r3, BASEPRI
 8002cc2:	f382 8812 	msr	BASEPRI_MAX, r2
 8002cc6:	f3bf 8f6f 	isb	sy
			if (LL_USART_IsActiveFlag_TXE(config->usart)) {
 8002cca:	6802      	ldr	r2, [r0, #0]
 8002ccc:	69d4      	ldr	r4, [r2, #28]
 8002cce:	0624      	lsls	r4, r4, #24
 8002cd0:	d404      	bmi.n	8002cdc <uart_stm32_poll_out+0x2e>
	__asm__ volatile(
 8002cd2:	f383 8811 	msr	BASEPRI, r3
 8002cd6:	f3bf 8f6f 	isb	sy
		"cpsie i;"
		: : : "memory", "cc");
#else
#error Unknown ARM architecture
#endif /* CONFIG_ARMV6_M_ARMV8_M_BASELINE */
}
 8002cda:	e7ea      	b.n	8002cb2 <uart_stm32_poll_out+0x4>
  * @param  Value between Min_Data=0x00 and Max_Data=0xFF
  * @retval None
  */
__STATIC_INLINE void LL_USART_TransmitData8(USART_TypeDef *USARTx, uint8_t Value)
{
  USARTx->TDR = Value;
 8002cdc:	8511      	strh	r1, [r2, #40]	; 0x28
	__asm__ volatile(
 8002cde:	f383 8811 	msr	BASEPRI, r3
 8002ce2:	f3bf 8f6f 	isb	sy
}
 8002ce6:	bd10      	pop	{r4, pc}

08002ce8 <uart_stm32_poll_in>:
	const struct uart_stm32_config *config = dev->config;
 8002ce8:	6843      	ldr	r3, [r0, #4]
	if (LL_USART_IsActiveFlag_ORE(config->usart)) {
 8002cea:	681a      	ldr	r2, [r3, #0]
  return ((READ_BIT(USARTx->ISR, USART_ISR_ORE) == (USART_ISR_ORE)) ? 1UL : 0UL);
 8002cec:	69d0      	ldr	r0, [r2, #28]
 8002cee:	0700      	lsls	r0, r0, #28
  WRITE_REG(USARTx->ICR, USART_ICR_ORECF);
 8002cf0:	bf44      	itt	mi
 8002cf2:	2008      	movmi	r0, #8
 8002cf4:	6210      	strmi	r0, [r2, #32]
	if (!LL_USART_IsActiveFlag_RXNE(config->usart)) {
 8002cf6:	681b      	ldr	r3, [r3, #0]
  return ((READ_BIT(USARTx->ISR, USART_ISR_RXNE) == (USART_ISR_RXNE)) ? 1UL : 0UL);
 8002cf8:	69da      	ldr	r2, [r3, #28]
 8002cfa:	0692      	lsls	r2, r2, #26
  return (uint8_t)(READ_BIT(USARTx->RDR, USART_RDR_RDR) & 0xFFU);
 8002cfc:	bf43      	ittte	mi
 8002cfe:	8c9b      	ldrhmi	r3, [r3, #36]	; 0x24
 8002d00:	700b      	strbmi	r3, [r1, #0]
	return 0;
 8002d02:	2000      	movmi	r0, #0
		return -1;
 8002d04:	f04f 30ff 	movpl.w	r0, #4294967295
}
 8002d08:	4770      	bx	lr

08002d0a <uart_stm32_config_get>:
	cfg->baudrate = data->baud_rate;
 8002d0a:	6903      	ldr	r3, [r0, #16]
 8002d0c:	681b      	ldr	r3, [r3, #0]
 8002d0e:	600b      	str	r3, [r1, #0]
	return LL_USART_GetParity(config->usart);
 8002d10:	6843      	ldr	r3, [r0, #4]
 8002d12:	681b      	ldr	r3, [r3, #0]
  return (uint32_t)(READ_BIT(USARTx->CR1, USART_CR1_PS | USART_CR1_PCE));
 8002d14:	681b      	ldr	r3, [r3, #0]
 8002d16:	f403 63c0 	and.w	r3, r3, #1536	; 0x600
	switch (parity) {
 8002d1a:	f5b3 6f80 	cmp.w	r3, #1024	; 0x400
 8002d1e:	d035      	beq.n	8002d8c <uart_stm32_config_get+0x82>
 8002d20:	f5a3 6cc0 	sub.w	ip, r3, #1536	; 0x600
 8002d24:	f1dc 0300 	rsbs	r3, ip, #0
 8002d28:	eb43 030c 	adc.w	r3, r3, ip
	cfg->parity = uart_stm32_ll2cfg_parity(uart_stm32_get_parity(dev));
 8002d2c:	710b      	strb	r3, [r1, #4]
	return LL_USART_GetStopBitsLength(config->usart);
 8002d2e:	6843      	ldr	r3, [r0, #4]
 8002d30:	681b      	ldr	r3, [r3, #0]
  return (uint32_t)(READ_BIT(USARTx->CR2, USART_CR2_STOP));
 8002d32:	685b      	ldr	r3, [r3, #4]
 8002d34:	f403 5340 	and.w	r3, r3, #12288	; 0x3000
	switch (sb) {
 8002d38:	f5b3 5f80 	cmp.w	r3, #4096	; 0x1000
 8002d3c:	d028      	beq.n	8002d90 <uart_stm32_config_get+0x86>
 8002d3e:	f5b3 5f40 	cmp.w	r3, #12288	; 0x3000
 8002d42:	d027      	beq.n	8002d94 <uart_stm32_config_get+0x8a>
		return UART_CFG_STOP_BITS_2;
 8002d44:	2b00      	cmp	r3, #0
 8002d46:	bf0c      	ite	eq
 8002d48:	2301      	moveq	r3, #1
 8002d4a:	2303      	movne	r3, #3
	cfg->stop_bits = uart_stm32_ll2cfg_stopbits(
 8002d4c:	714b      	strb	r3, [r1, #5]
	return LL_USART_GetDataWidth(config->usart);
 8002d4e:	6843      	ldr	r3, [r0, #4]
 8002d50:	681b      	ldr	r3, [r3, #0]
  return (uint32_t)(READ_BIT(USARTx->CR1, USART_CR1_M));
 8002d52:	681a      	ldr	r2, [r3, #0]
  return (uint32_t)(READ_BIT(USARTx->CR1, USART_CR1_PS | USART_CR1_PCE));
 8002d54:	681b      	ldr	r3, [r3, #0]
  return (uint32_t)(READ_BIT(USARTx->CR1, USART_CR1_M));
 8002d56:	f002 2210 	and.w	r2, r2, #268439552	; 0x10001000
	switch (db) {
 8002d5a:	f5b2 5f80 	cmp.w	r2, #4096	; 0x1000
  return (uint32_t)(READ_BIT(USARTx->CR1, USART_CR1_PS | USART_CR1_PCE));
 8002d5e:	f403 63c0 	and.w	r3, r3, #1536	; 0x600
 8002d62:	d019      	beq.n	8002d98 <uart_stm32_config_get+0x8e>
 8002d64:	f1b2 5f80 	cmp.w	r2, #268435456	; 0x10000000
 8002d68:	d11b      	bne.n	8002da2 <uart_stm32_config_get+0x98>
			return UART_CFG_DATA_BITS_7;
 8002d6a:	2b00      	cmp	r3, #0
 8002d6c:	bf14      	ite	ne
 8002d6e:	2301      	movne	r3, #1
 8002d70:	2302      	moveq	r3, #2
	cfg->data_bits = uart_stm32_ll2cfg_databits(
 8002d72:	718b      	strb	r3, [r1, #6]
	return LL_USART_GetHWFlowCtrl(config->usart);
 8002d74:	6843      	ldr	r3, [r0, #4]
 8002d76:	681b      	ldr	r3, [r3, #0]
  return (uint32_t)(READ_BIT(USARTx->CR3, USART_CR3_RTSE | USART_CR3_CTSE));
 8002d78:	689b      	ldr	r3, [r3, #8]
 8002d7a:	f403 7340 	and.w	r3, r3, #768	; 0x300
	if (fc == LL_USART_HWCONTROL_RTS_CTS) {
 8002d7e:	f5a3 7240 	sub.w	r2, r3, #768	; 0x300
 8002d82:	4253      	negs	r3, r2
 8002d84:	4153      	adcs	r3, r2
 8002d86:	71cb      	strb	r3, [r1, #7]
}
 8002d88:	2000      	movs	r0, #0
 8002d8a:	4770      	bx	lr
	switch (parity) {
 8002d8c:	2302      	movs	r3, #2
 8002d8e:	e7cd      	b.n	8002d2c <uart_stm32_config_get+0x22>
		return UART_CFG_STOP_BITS_0_5;
 8002d90:	2300      	movs	r3, #0
 8002d92:	e7db      	b.n	8002d4c <uart_stm32_config_get+0x42>
		return UART_CFG_STOP_BITS_1_5;
 8002d94:	2302      	movs	r3, #2
 8002d96:	e7d9      	b.n	8002d4c <uart_stm32_config_get+0x42>
			return UART_CFG_DATA_BITS_9;
 8002d98:	2b00      	cmp	r3, #0
 8002d9a:	bf14      	ite	ne
 8002d9c:	2303      	movne	r3, #3
 8002d9e:	2304      	moveq	r3, #4
 8002da0:	e7e7      	b.n	8002d72 <uart_stm32_config_get+0x68>
			return UART_CFG_DATA_BITS_8;
 8002da2:	2b00      	cmp	r3, #0
 8002da4:	bf14      	ite	ne
 8002da6:	2302      	movne	r3, #2
 8002da8:	2303      	moveq	r3, #3
 8002daa:	e7e2      	b.n	8002d72 <uart_stm32_config_get+0x68>

08002dac <pinctrl_lookup_state>:

#include <zephyr/drivers/pinctrl.h>

int pinctrl_lookup_state(const struct pinctrl_dev_config *config, uint8_t id,
			 const struct pinctrl_state **state)
{
 8002dac:	b570      	push	{r4, r5, r6, lr}
	*state = &config->states[0];
 8002dae:	6803      	ldr	r3, [r0, #0]
	while (*state <= &config->states[config->state_cnt - 1U]) {
 8002db0:	f06f 4660 	mvn.w	r6, #3758096384	; 0xe0000000
	*state = &config->states[0];
 8002db4:	6013      	str	r3, [r2, #0]
	while (*state <= &config->states[config->state_cnt - 1U]) {
 8002db6:	7905      	ldrb	r5, [r0, #4]
 8002db8:	6804      	ldr	r4, [r0, #0]
 8002dba:	4435      	add	r5, r6
 8002dbc:	eb04 04c5 	add.w	r4, r4, r5, lsl #3
 8002dc0:	42a3      	cmp	r3, r4
 8002dc2:	d902      	bls.n	8002dca <pinctrl_lookup_state+0x1e>
		}

		(*state)++;
	}

	return -ENOENT;
 8002dc4:	f06f 0001 	mvn.w	r0, #1
}
 8002dc8:	bd70      	pop	{r4, r5, r6, pc}
		if (id == (*state)->id) {
 8002dca:	795c      	ldrb	r4, [r3, #5]
 8002dcc:	428c      	cmp	r4, r1
 8002dce:	d001      	beq.n	8002dd4 <pinctrl_lookup_state+0x28>
		(*state)++;
 8002dd0:	3308      	adds	r3, #8
 8002dd2:	e7ef      	b.n	8002db4 <pinctrl_lookup_state+0x8>
			return 0;
 8002dd4:	2000      	movs	r0, #0
 8002dd6:	e7f7      	b.n	8002dc8 <pinctrl_lookup_state+0x1c>

08002dd8 <z_device_state_init>:
}
 8002dd8:	4770      	bx	lr

08002dda <z_device_is_ready>:
{
	/*
	 * if an invalid device pointer is passed as argument, this call
	 * reports the `device` as not ready for usage.
	 */
	if (dev == NULL) {
 8002dda:	b138      	cbz	r0, 8002dec <z_device_is_ready+0x12>
		return false;
	}

	return dev->state->initialized && (dev->state->init_res == 0U);
 8002ddc:	68c3      	ldr	r3, [r0, #12]
 8002dde:	8818      	ldrh	r0, [r3, #0]
 8002de0:	f3c0 0008 	ubfx	r0, r0, #0, #9
 8002de4:	f5a0 7380 	sub.w	r3, r0, #256	; 0x100
 8002de8:	4258      	negs	r0, r3
 8002dea:	4158      	adcs	r0, r3
}
 8002dec:	4770      	bx	lr

08002dee <arch_system_halt>:
	__asm__ volatile(
 8002dee:	f04f 0210 	mov.w	r2, #16
 8002df2:	f3ef 8311 	mrs	r3, BASEPRI
 8002df6:	f382 8812 	msr	BASEPRI_MAX, r2
 8002dfa:	f3bf 8f6f 	isb	sy
	/* TODO: What's the best way to totally halt the system if SMP
	 * is enabled?
	 */

	(void)arch_irq_lock();
	for (;;) {
 8002dfe:	e7fe      	b.n	8002dfe <arch_system_halt+0x10>

08002e00 <k_sys_fatal_error_handler>:
/* LCOV_EXCL_STOP */

/* LCOV_EXCL_START */
__weak void k_sys_fatal_error_handler(unsigned int reason,
				      const z_arch_esf_t *esf)
{
 8002e00:	b508      	push	{r3, lr}
	ARG_UNUSED(esf);

	LOG_PANIC();
	LOG_ERR("Halting system");
	arch_system_halt(reason);
 8002e02:	f7ff fff4 	bl	8002dee <arch_system_halt>

08002e06 <z_fatal_error>:
	return 0;
#endif
}

void z_fatal_error(unsigned int reason, const z_arch_esf_t *esf)
{
 8002e06:	b5f8      	push	{r3, r4, r5, r6, r7, lr}
 8002e08:	4605      	mov	r5, r0
 8002e0a:	460e      	mov	r6, r1
 8002e0c:	f04f 0310 	mov.w	r3, #16
 8002e10:	f3ef 8711 	mrs	r7, BASEPRI
 8002e14:	f383 8812 	msr	BASEPRI_MAX, r3
 8002e18:	f3bf 8f6f 	isb	sy
	return z_impl_z_current_get();
 8002e1c:	f7ff fab6 	bl	800238c <z_impl_z_current_get>

#ifndef CONFIG_XTENSA
	coredump(reason, esf, thread);
#endif

	k_sys_fatal_error_handler(reason, esf);
 8002e20:	4631      	mov	r1, r6
 8002e22:	4604      	mov	r4, r0
 8002e24:	4628      	mov	r0, r5
 8002e26:	f7ff ffeb 	bl	8002e00 <k_sys_fatal_error_handler>
	__asm__ volatile(
 8002e2a:	f387 8811 	msr	BASEPRI, r7
 8002e2e:	f3bf 8f6f 	isb	sy
	z_impl_k_thread_abort(thread);
 8002e32:	4620      	mov	r0, r4
	arch_irq_unlock(key);

	if (IS_ENABLED(CONFIG_MULTITHREADING)) {
		k_thread_abort(thread);
	}
}
 8002e34:	e8bd 40f8 	ldmia.w	sp!, {r3, r4, r5, r6, r7, lr}
 8002e38:	f7fe b96e 	b.w	8001118 <z_impl_k_thread_abort>

08002e3c <z_early_memset>:
	(void) memset(dst, c, n);
 8002e3c:	f7ff bd2d 	b.w	800289a <memset>

08002e40 <z_early_memcpy>:
	(void) memcpy(dst, src, n);
 8002e40:	f7ff bd20 	b.w	8002884 <memcpy>

08002e44 <idle>:
#endif	/* CONFIG_PM */
	sys_clock_idle_exit();
}

void idle(void *unused1, void *unused2, void *unused3)
{
 8002e44:	b508      	push	{r3, lr}
	__asm__ volatile(
 8002e46:	f04f 0210 	mov.w	r2, #16
 8002e4a:	f3ef 8311 	mrs	r3, BASEPRI
 8002e4e:	f382 8812 	msr	BASEPRI_MAX, r2
 8002e52:	f3bf 8f6f 	isb	sy
 * @note In some architectures, before returning, the function unmasks interrupts
 * unconditionally.
 */
static inline void k_cpu_idle(void)
{
	arch_cpu_idle();
 8002e56:	f7fd ff1d 	bl	8000c94 <arch_cpu_idle>
 8002e5a:	e7f4      	b.n	8002e46 <idle+0x2>

08002e5c <sys_dlist_remove>:
	sys_dnode_t *const next = node->next;
 8002e5c:	e9d0 3200 	ldrd	r3, r2, [r0]
	prev->next = next;
 8002e60:	6013      	str	r3, [r2, #0]
	next->prev = prev;
 8002e62:	605a      	str	r2, [r3, #4]
	node->next = NULL;
 8002e64:	2300      	movs	r3, #0
	node->prev = NULL;
 8002e66:	e9c0 3300 	strd	r3, r3, [r0]
	sys_dnode_init(node);
}
 8002e6a:	4770      	bx	lr

08002e6c <unpend_thread_no_timeout>:
{
 8002e6c:	b508      	push	{r3, lr}
	sys_dlist_remove(&thread->base.qnode_dlist);
 8002e6e:	f7ff fff5 	bl	8002e5c <sys_dlist_remove>
	thread->base.thread_state &= ~_THREAD_PENDING;
 8002e72:	7b43      	ldrb	r3, [r0, #13]
 8002e74:	f023 0302 	bic.w	r3, r3, #2
 8002e78:	7343      	strb	r3, [r0, #13]
	thread->base.pended_on = NULL;
 8002e7a:	2300      	movs	r3, #0
 8002e7c:	6083      	str	r3, [r0, #8]
}
 8002e7e:	bd08      	pop	{r3, pc}

08002e80 <z_thread_timeout>:
{
 8002e80:	b510      	push	{r4, lr}
 8002e82:	4601      	mov	r1, r0
 8002e84:	f04f 0310 	mov.w	r3, #16
 8002e88:	f3ef 8411 	mrs	r4, BASEPRI
 8002e8c:	f383 8812 	msr	BASEPRI_MAX, r3
 8002e90:	f3bf 8f6f 	isb	sy
		if (!killed) {
 8002e94:	f810 3c0b 	ldrb.w	r3, [r0, #-11]
 8002e98:	f013 0f28 	tst.w	r3, #40	; 0x28
 8002e9c:	d10d      	bne.n	8002eba <z_thread_timeout+0x3a>
			if (thread->base.pended_on != NULL) {
 8002e9e:	f851 3c10 	ldr.w	r3, [r1, #-16]
	struct k_thread *thread = CONTAINER_OF(timeout,
 8002ea2:	3818      	subs	r0, #24
			if (thread->base.pended_on != NULL) {
 8002ea4:	b10b      	cbz	r3, 8002eaa <z_thread_timeout+0x2a>
				unpend_thread_no_timeout(thread);
 8002ea6:	f7ff ffe1 	bl	8002e6c <unpend_thread_no_timeout>
	thread->base.thread_state &= ~_THREAD_SUSPENDED;
 8002eaa:	f811 3c0b 	ldrb.w	r3, [r1, #-11]
 8002eae:	f023 0314 	bic.w	r3, r3, #20
 8002eb2:	f801 3c0b 	strb.w	r3, [r1, #-11]
			ready_thread(thread);
 8002eb6:	f7ff f961 	bl	800217c <ready_thread>
	__asm__ volatile(
 8002eba:	f384 8811 	msr	BASEPRI, r4
 8002ebe:	f3bf 8f6f 	isb	sy
}
 8002ec2:	bd10      	pop	{r4, pc}

08002ec4 <z_ready_thread>:
{
 8002ec4:	b510      	push	{r4, lr}
	__asm__ volatile(
 8002ec6:	f04f 0310 	mov.w	r3, #16
 8002eca:	f3ef 8411 	mrs	r4, BASEPRI
 8002ece:	f383 8812 	msr	BASEPRI_MAX, r3
 8002ed2:	f3bf 8f6f 	isb	sy
			ready_thread(thread);
 8002ed6:	f7ff f951 	bl	800217c <ready_thread>
	__asm__ volatile(
 8002eda:	f384 8811 	msr	BASEPRI, r4
 8002ede:	f3bf 8f6f 	isb	sy
}
 8002ee2:	bd10      	pop	{r4, pc}

08002ee4 <z_reschedule_irqlock>:
	return arch_irq_unlocked(key) && !arch_is_in_isr();
 8002ee4:	4603      	mov	r3, r0
 8002ee6:	b920      	cbnz	r0, 8002ef2 <z_reschedule_irqlock+0xe>
  __ASM volatile ("MRS %0, ipsr" : "=r" (result) );
 8002ee8:	f3ef 8205 	mrs	r2, IPSR
 8002eec:	b90a      	cbnz	r2, 8002ef2 <z_reschedule_irqlock+0xe>
	ret = arch_swap(key);
 8002eee:	f7fd bf2d 	b.w	8000d4c <arch_swap>
 8002ef2:	f383 8811 	msr	BASEPRI, r3
 8002ef6:	f3bf 8f6f 	isb	sy
}
 8002efa:	4770      	bx	lr

08002efc <z_reschedule_unlocked>:
	__asm__ volatile(
 8002efc:	f04f 0310 	mov.w	r3, #16
 8002f00:	f3ef 8011 	mrs	r0, BASEPRI
 8002f04:	f383 8812 	msr	BASEPRI_MAX, r3
 8002f08:	f3bf 8f6f 	isb	sy
	(void) z_reschedule_irqlock(arch_irq_lock());
 8002f0c:	f7ff bfea 	b.w	8002ee4 <z_reschedule_irqlock>

08002f10 <z_abort_timeout>:
{
 8002f10:	b510      	push	{r4, lr}
 8002f12:	f04f 0210 	mov.w	r2, #16
 8002f16:	f3ef 8411 	mrs	r4, BASEPRI
 8002f1a:	f382 8812 	msr	BASEPRI_MAX, r2
 8002f1e:	f3bf 8f6f 	isb	sy
		if (sys_dnode_is_linked(&to->node)) {
 8002f22:	6803      	ldr	r3, [r0, #0]
 8002f24:	b13b      	cbz	r3, 8002f36 <z_abort_timeout+0x26>
			remove_timeout(to);
 8002f26:	f7ff fae3 	bl	80024f0 <remove_timeout>
			ret = 0;
 8002f2a:	2000      	movs	r0, #0
	__asm__ volatile(
 8002f2c:	f384 8811 	msr	BASEPRI, r4
 8002f30:	f3bf 8f6f 	isb	sy
}
 8002f34:	bd10      	pop	{r4, pc}
	int ret = -EINVAL;
 8002f36:	f06f 0015 	mvn.w	r0, #21
 8002f3a:	e7f7      	b.n	8002f2c <z_abort_timeout+0x1c>

08002f3c <z_set_timeout_expiry>:
{
 8002f3c:	b570      	push	{r4, r5, r6, lr}
 8002f3e:	4604      	mov	r4, r0
 8002f40:	460d      	mov	r5, r1
	__asm__ volatile(
 8002f42:	f04f 0310 	mov.w	r3, #16
 8002f46:	f3ef 8611 	mrs	r6, BASEPRI
 8002f4a:	f383 8812 	msr	BASEPRI_MAX, r3
 8002f4e:	f3bf 8f6f 	isb	sy
		int next_to = next_timeout();
 8002f52:	f7ff faa5 	bl	80024a0 <next_timeout>
			      || (ticks <= next_to);
 8002f56:	2801      	cmp	r0, #1
 8002f58:	dd07      	ble.n	8002f6a <z_set_timeout_expiry+0x2e>
 8002f5a:	42a0      	cmp	r0, r4
 8002f5c:	db05      	blt.n	8002f6a <z_set_timeout_expiry+0x2e>
			sys_clock_set_timeout(MIN(ticks, next_to), is_idle);
 8002f5e:	42a0      	cmp	r0, r4
 8002f60:	4629      	mov	r1, r5
 8002f62:	bfa8      	it	ge
 8002f64:	4620      	movge	r0, r4
 8002f66:	f7fe fdbf 	bl	8001ae8 <sys_clock_set_timeout>
	__asm__ volatile(
 8002f6a:	f386 8811 	msr	BASEPRI, r6
 8002f6e:	f3bf 8f6f 	isb	sy
}
 8002f72:	bd70      	pop	{r4, r5, r6, pc}
